
ATMEGA328_INTERRUPT.elf:     file format elf32-avr

Sections:
Idx Name          Size      VMA       LMA       File off  Algn
  0 .data         00000000  00800100  00800100  000006b0  2**0
                  ALLOC, LOAD, DATA
  1 .text         000000ce  00000000  00000000  000000d4  2**1
                  CONTENTS, ALLOC, LOAD, READONLY, CODE
  2 .comment      0000002f  00000000  00000000  000006b0  2**0
                  CONTENTS, READONLY
  3 .stack.descriptors.hdr 0000000e  00000000  00000000  000006df  2**0
                  CONTENTS, READONLY
  4 .debug_aranges 00000078  00000000  00000000  000006ed  2**0
                  CONTENTS, READONLY, DEBUGGING
  5 .debug_info   000012bd  00000000  00000000  00000765  2**0
                  CONTENTS, READONLY, DEBUGGING
  6 .debug_abbrev 000007ca  00000000  00000000  00001a22  2**0
                  CONTENTS, READONLY, DEBUGGING
  7 .debug_line   0000081b  00000000  00000000  000021ec  2**0
                  CONTENTS, READONLY, DEBUGGING
  8 .debug_frame  00000178  00000000  00000000  00002a08  2**2
                  CONTENTS, READONLY, DEBUGGING
  9 .debug_str    00000208  00000000  00000000  00002b80  2**0
                  CONTENTS, READONLY, DEBUGGING
 10 .debug_loc    00000845  00000000  00000000  00002d88  2**0
                  CONTENTS, READONLY, DEBUGGING
 11 .debug_ranges 000000e0  00000000  00000000  000035cd  2**0
                  CONTENTS, READONLY, DEBUGGING
 12 .text         00000004  000005cc  000005cc  000006a0  2**1
                  CONTENTS, ALLOC, LOAD, READONLY, CODE
 13 .note.gnu.avr.deviceinfo 00000040  00000000  00000000  000036b0  2**2
                  CONTENTS, READONLY, DEBUGGING
 14 .text.delay_abort_ms 00000028  0000053e  0000053e  00000612  2**1
                  CONTENTS, ALLOC, LOAD, READONLY, CODE
 15 .text.pattern_marquee 00000040  0000047e  0000047e  00000552  2**1
                  CONTENTS, ALLOC, LOAD, READONLY, CODE
 16 .text.pattern_pingpong 00000070  000002f4  000002f4  000003c8  2**1
                  CONTENTS, ALLOC, LOAD, READONLY, CODE
 17 .text.pattern_alternate 00000040  000004be  000004be  00000592  2**1
                  CONTENTS, ALLOC, LOAD, READONLY, CODE
 18 .text.pattern_fill 0000005c  000003d0  000003d0  000004a4  2**1
                  CONTENTS, ALLOC, LOAD, READONLY, CODE
 19 .text.pattern_random 00000088  0000026c  0000026c  00000340  2**1
                  CONTENTS, ALLOC, LOAD, READONLY, CODE
 20 .text.run_pattern 00000040  000004fe  000004fe  000005d2  2**1
                  CONTENTS, ALLOC, LOAD, READONLY, CODE
 21 .text.__vector_3 00000052  0000042c  0000042c  00000500  2**1
                  CONTENTS, ALLOC, LOAD, READONLY, CODE
 22 .text.__vector_4 0000006c  00000364  00000364  00000438  2**1
                  CONTENTS, ALLOC, LOAD, READONLY, CODE
 23 .text.__vector_1 00000028  00000566  00000566  0000063a  2**1
                  CONTENTS, ALLOC, LOAD, READONLY, CODE
 24 .text.__vector_2 00000028  0000058e  0000058e  00000662  2**1
                  CONTENTS, ALLOC, LOAD, READONLY, CODE
 25 .text.main    0000019e  000000ce  000000ce  000001a2  2**1
                  CONTENTS, ALLOC, LOAD, READONLY, CODE
 26 .bss.g_mode   00000001  00800100  00800100  000006b0  2**0
                  ALLOC
 27 .data.g_prev_pinb 00000001  00800101  000005da  000006ae  2**0
                  CONTENTS, ALLOC, LOAD, DATA
 28 .data.g_prev_pinc 00000001  00800102  000005db  000006af  2**0
                  CONTENTS, ALLOC, LOAD, DATA
 29 .bss.g_btn_flags 00000001  00800103  00800103  000006b0  2**0
                  ALLOC
 30 .text.__dummy_fini 00000002  000005d4  000005d4  000006a8  2**1
                  CONTENTS, ALLOC, LOAD, READONLY, CODE
 31 .text.__dummy_funcs_on_exit 00000002  000005d6  000005d6  000006aa  2**1
                  CONTENTS, ALLOC, LOAD, READONLY, CODE
 32 .text.__dummy_simulator_exit 00000002  000005d8  000005d8  000006ac  2**1
                  CONTENTS, ALLOC, LOAD, READONLY, CODE
 33 .text.exit    00000016  000005b6  000005b6  0000068a  2**1
                  CONTENTS, ALLOC, LOAD, READONLY, CODE
 34 .text._Exit   00000004  000005d0  000005d0  000006a4  2**1
                  CONTENTS, ALLOC, LOAD, READONLY, CODE

Disassembly of section .text:

00000000 <__vectors>:
   0:	0c 94 3d 00 	jmp	0x7a	; 0x7a <__ctors_end>
   4:	0c 94 b3 02 	jmp	0x566	; 0x566 <__vector_1>
   8:	0c 94 c7 02 	jmp	0x58e	; 0x58e <__vector_2>
   c:	0c 94 16 02 	jmp	0x42c	; 0x42c <__vector_3>
  10:	0c 94 b2 01 	jmp	0x364	; 0x364 <__vector_4>
  14:	0c 94 e6 02 	jmp	0x5cc	; 0x5cc <__bad_interrupt>
  18:	0c 94 e6 02 	jmp	0x5cc	; 0x5cc <__bad_interrupt>
  1c:	0c 94 e6 02 	jmp	0x5cc	; 0x5cc <__bad_interrupt>
  20:	0c 94 e6 02 	jmp	0x5cc	; 0x5cc <__bad_interrupt>
  24:	0c 94 e6 02 	jmp	0x5cc	; 0x5cc <__bad_interrupt>
  28:	0c 94 e6 02 	jmp	0x5cc	; 0x5cc <__bad_interrupt>
  2c:	0c 94 e6 02 	jmp	0x5cc	; 0x5cc <__bad_interrupt>
  30:	0c 94 e6 02 	jmp	0x5cc	; 0x5cc <__bad_interrupt>
  34:	0c 94 e6 02 	jmp	0x5cc	; 0x5cc <__bad_interrupt>
  38:	0c 94 e6 02 	jmp	0x5cc	; 0x5cc <__bad_interrupt>
  3c:	0c 94 e6 02 	jmp	0x5cc	; 0x5cc <__bad_interrupt>
  40:	0c 94 e6 02 	jmp	0x5cc	; 0x5cc <__bad_interrupt>
  44:	0c 94 e6 02 	jmp	0x5cc	; 0x5cc <__bad_interrupt>
  48:	0c 94 e6 02 	jmp	0x5cc	; 0x5cc <__bad_interrupt>
  4c:	0c 94 e6 02 	jmp	0x5cc	; 0x5cc <__bad_interrupt>
  50:	0c 94 e6 02 	jmp	0x5cc	; 0x5cc <__bad_interrupt>
  54:	0c 94 e6 02 	jmp	0x5cc	; 0x5cc <__bad_interrupt>
  58:	0c 94 e6 02 	jmp	0x5cc	; 0x5cc <__bad_interrupt>
  5c:	0c 94 e6 02 	jmp	0x5cc	; 0x5cc <__bad_interrupt>
  60:	0c 94 e6 02 	jmp	0x5cc	; 0x5cc <__bad_interrupt>
  64:	0c 94 e6 02 	jmp	0x5cc	; 0x5cc <__bad_interrupt>

00000068 <.dinit>:
  68:	01 00       	.word	0x0001	; ????
  6a:	01 01       	movw	r0, r2
  6c:	80 01       	movw	r16, r0
  6e:	01 01       	movw	r0, r2
  70:	03 00       	.word	0x0003	; ????
  72:	05 da       	rcall	.-3062   	; 0xfffff47e <__eeprom_end+0xff7ef47e>
  74:	01 03       	mulsu	r16, r17
  76:	01 04       	cpc	r0, r1
  78:	80 00       	.word	0x0080	; ????

0000007a <__ctors_end>:
  7a:	11 24       	eor	r1, r1
  7c:	1f be       	out	0x3f, r1	; 63
  7e:	cf ef       	ldi	r28, 0xFF	; 255
  80:	d8 e0       	ldi	r29, 0x08	; 8
  82:	de bf       	out	0x3e, r29	; 62
  84:	cd bf       	out	0x3d, r28	; 61

00000086 <__do_copy_data>:
  86:	e8 e6       	ldi	r30, 0x68	; 104
  88:	f0 e0       	ldi	r31, 0x00	; 0
  8a:	40 e0       	ldi	r20, 0x00	; 0
  8c:	17 c0       	rjmp	.+46     	; 0xbc <__do_clear_bss+0x8>
  8e:	b5 91       	lpm	r27, Z+
  90:	a5 91       	lpm	r26, Z+
  92:	35 91       	lpm	r19, Z+
  94:	25 91       	lpm	r18, Z+
  96:	05 91       	lpm	r16, Z+
  98:	07 fd       	sbrc	r16, 7
  9a:	0c c0       	rjmp	.+24     	; 0xb4 <__do_clear_bss>
  9c:	95 91       	lpm	r25, Z+
  9e:	85 91       	lpm	r24, Z+
  a0:	ef 01       	movw	r28, r30
  a2:	f9 2f       	mov	r31, r25
  a4:	e8 2f       	mov	r30, r24
  a6:	05 90       	lpm	r0, Z+
  a8:	0d 92       	st	X+, r0
  aa:	a2 17       	cp	r26, r18
  ac:	b3 07       	cpc	r27, r19
  ae:	d9 f7       	brne	.-10     	; 0xa6 <__do_copy_data+0x20>
  b0:	fe 01       	movw	r30, r28
  b2:	04 c0       	rjmp	.+8      	; 0xbc <__do_clear_bss+0x8>

000000b4 <__do_clear_bss>:
  b4:	1d 92       	st	X+, r1
  b6:	a2 17       	cp	r26, r18
  b8:	b3 07       	cpc	r27, r19
  ba:	e1 f7       	brne	.-8      	; 0xb4 <__do_clear_bss>
  bc:	e9 37       	cpi	r30, 0x79	; 121
  be:	f4 07       	cpc	r31, r20
  c0:	31 f7       	brne	.-52     	; 0x8e <__do_copy_data+0x8>
  c2:	0e 94 67 00 	call	0xce	; 0xce <_etext>
  c6:	0c 94 db 02 	jmp	0x5b6	; 0x5b6 <exit>

000000ca <_exit>:
  ca:	f8 94       	cli

000000cc <__stop_program>:
  cc:	ff cf       	rjmp	.-2      	; 0xcc <__stop_program>

Disassembly of section .text:

000005cc <__bad_interrupt>:
 5cc:	0c 94 00 00 	jmp	0	; 0x0 <__TEXT_REGION_ORIGIN__>

Disassembly of section .text.delay_abort_ms:

0000053e <delay_abort_ms>:
		} else if (idx == 2U) { // PCINT0 (PB5)
		PCMSK0 |= (1U << PCINT5);
	}
}

static void delay_abort_ms(uint16_t ms) {
 53e:	ac 01       	movw	r20, r24
	for (uint16_t t = 0U; t < ms; t++) {
 540:	20 e0       	ldi	r18, 0x00	; 0
 542:	30 e0       	ldi	r19, 0x00	; 0
 544:	0c c0       	rjmp	.+24     	; 0x55e <delay_abort_ms+0x20>
	PORTB = (uint8_t)((v & (uint8_t)~BTN_MASK_PB) | BTN_MASK_PB);
}

//ABORTAR
static inline uint8_t abort_requested(void) {
	return (g_btn_flags != 0U);
 546:	90 91 03 01 	lds	r25, 0x0103	; 0x800103 <g_btn_flags>
	}
}

static void delay_abort_ms(uint16_t ms) {
	for (uint16_t t = 0U; t < ms; t++) {
		if (abort_requested()) { return; }
 54a:	91 11       	cpse	r25, r1
 54c:	0b c0       	rjmp	.+22     	; 0x564 <delay_abort_ms+0x26>
	#else
		//round up by default
		__ticks_dc = (uint32_t)(ceil(fabs(__tmp)));
	#endif

	__builtin_avr_delay_cycles(__ticks_dc);
 54e:	89 ef       	ldi	r24, 0xF9	; 249
 550:	90 e0       	ldi	r25, 0x00	; 0
 552:	01 97       	sbiw	r24, 0x01	; 1
 554:	f1 f7       	brne	.-4      	; 0x552 <delay_abort_ms+0x14>
 556:	00 c0       	rjmp	.+0      	; 0x558 <delay_abort_ms+0x1a>
 558:	00 00       	nop
		PCMSK0 |= (1U << PCINT5);
	}
}

static void delay_abort_ms(uint16_t ms) {
	for (uint16_t t = 0U; t < ms; t++) {
 55a:	2f 5f       	subi	r18, 0xFF	; 255
 55c:	3f 4f       	sbci	r19, 0xFF	; 255
 55e:	24 17       	cp	r18, r20
 560:	35 07       	cpc	r19, r21
 562:	88 f3       	brcs	.-30     	; 0x546 <delay_abort_ms+0x8>
 564:	08 95       	ret

Disassembly of section .text.pattern_marquee:

0000047e <pattern_marquee>:
	EIMSK &= (uint8_t)~(1U << INT1);
}

// --- PATRONES DE LUCES SOLO EN PORTB ---
static void pattern_marquee(void)
{
 47e:	cf 93       	push	r28
	for (uint8_t c = 0U; c < PATTERN_CYCLES && !abort_requested(); c++) {
 480:	c0 e0       	ldi	r28, 0x00	; 0
 482:	15 c0       	rjmp	.+42     	; 0x4ae <pattern_marquee+0x30>
static volatile uint8_t g_prev_pinb = 0xFFU;
static volatile mode_t g_mode = MODE_BIN;

// Helper: escribe LEDs en PORTB preservando PB5 en '1' (pull-up activado)
static inline void LED_WRITE(uint8_t v) {
	PORTB = (uint8_t)((v & (uint8_t)~BTN_MASK_PB) | BTN_MASK_PB);
 484:	85 e7       	ldi	r24, 0x75	; 117
 486:	85 b9       	out	0x05, r24	; 5

// --- PATRONES DE LUCES SOLO EN PORTB ---
static void pattern_marquee(void)
{
	for (uint8_t c = 0U; c < PATTERN_CYCLES && !abort_requested(); c++) {
		LED_WRITE(0x55); delay_abort_ms(120); if (abort_requested()) return;
 488:	88 e7       	ldi	r24, 0x78	; 120
 48a:	90 e0       	ldi	r25, 0x00	; 0
 48c:	0e 94 9f 02 	call	0x53e	; 0x53e <delay_abort_ms>
	PORTB = (uint8_t)((v & (uint8_t)~BTN_MASK_PB) | BTN_MASK_PB);
}

//ABORTAR
static inline uint8_t abort_requested(void) {
	return (g_btn_flags != 0U);
 490:	80 91 03 01 	lds	r24, 0x0103	; 0x800103 <g_btn_flags>

// --- PATRONES DE LUCES SOLO EN PORTB ---
static void pattern_marquee(void)
{
	for (uint8_t c = 0U; c < PATTERN_CYCLES && !abort_requested(); c++) {
		LED_WRITE(0x55); delay_abort_ms(120); if (abort_requested()) return;
 494:	81 11       	cpse	r24, r1
 496:	11 c0       	rjmp	.+34     	; 0x4ba <pattern_marquee+0x3c>
static volatile uint8_t g_prev_pinb = 0xFFU;
static volatile mode_t g_mode = MODE_BIN;

// Helper: escribe LEDs en PORTB preservando PB5 en '1' (pull-up activado)
static inline void LED_WRITE(uint8_t v) {
	PORTB = (uint8_t)((v & (uint8_t)~BTN_MASK_PB) | BTN_MASK_PB);
 498:	8a ea       	ldi	r24, 0xAA	; 170
 49a:	85 b9       	out	0x05, r24	; 5
// --- PATRONES DE LUCES SOLO EN PORTB ---
static void pattern_marquee(void)
{
	for (uint8_t c = 0U; c < PATTERN_CYCLES && !abort_requested(); c++) {
		LED_WRITE(0x55); delay_abort_ms(120); if (abort_requested()) return;
		LED_WRITE(0xAA); delay_abort_ms(120); if (abort_requested()) return;
 49c:	88 e7       	ldi	r24, 0x78	; 120
 49e:	90 e0       	ldi	r25, 0x00	; 0
 4a0:	0e 94 9f 02 	call	0x53e	; 0x53e <delay_abort_ms>
	PORTB = (uint8_t)((v & (uint8_t)~BTN_MASK_PB) | BTN_MASK_PB);
}

//ABORTAR
static inline uint8_t abort_requested(void) {
	return (g_btn_flags != 0U);
 4a4:	80 91 03 01 	lds	r24, 0x0103	; 0x800103 <g_btn_flags>
// --- PATRONES DE LUCES SOLO EN PORTB ---
static void pattern_marquee(void)
{
	for (uint8_t c = 0U; c < PATTERN_CYCLES && !abort_requested(); c++) {
		LED_WRITE(0x55); delay_abort_ms(120); if (abort_requested()) return;
		LED_WRITE(0xAA); delay_abort_ms(120); if (abort_requested()) return;
 4a8:	81 11       	cpse	r24, r1
 4aa:	07 c0       	rjmp	.+14     	; 0x4ba <pattern_marquee+0x3c>
}

// --- PATRONES DE LUCES SOLO EN PORTB ---
static void pattern_marquee(void)
{
	for (uint8_t c = 0U; c < PATTERN_CYCLES && !abort_requested(); c++) {
 4ac:	cf 5f       	subi	r28, 0xFF	; 255
 4ae:	c4 30       	cpi	r28, 0x04	; 4
 4b0:	20 f4       	brcc	.+8      	; 0x4ba <pattern_marquee+0x3c>
	PORTB = (uint8_t)((v & (uint8_t)~BTN_MASK_PB) | BTN_MASK_PB);
}

//ABORTAR
static inline uint8_t abort_requested(void) {
	return (g_btn_flags != 0U);
 4b2:	80 91 03 01 	lds	r24, 0x0103	; 0x800103 <g_btn_flags>
}

// --- PATRONES DE LUCES SOLO EN PORTB ---
static void pattern_marquee(void)
{
	for (uint8_t c = 0U; c < PATTERN_CYCLES && !abort_requested(); c++) {
 4b6:	88 23       	and	r24, r24
 4b8:	29 f3       	breq	.-54     	; 0x484 <pattern_marquee+0x6>
		LED_WRITE(0x55); delay_abort_ms(120); if (abort_requested()) return;
		LED_WRITE(0xAA); delay_abort_ms(120); if (abort_requested()) return;
	}
}
 4ba:	cf 91       	pop	r28
 4bc:	08 95       	ret

Disassembly of section .text.pattern_pingpong:

000002f4 <pattern_pingpong>:

static void pattern_pingpong(void)
{
 2f4:	1f 93       	push	r17
 2f6:	cf 93       	push	r28
 2f8:	df 93       	push	r29
	for (uint8_t c = 0U; c < PATTERN_CYCLES && !abort_requested(); c++) {
 2fa:	10 e0       	ldi	r17, 0x00	; 0
 2fc:	29 c0       	rjmp	.+82     	; 0x350 <pattern_pingpong+0x5c>
static volatile uint8_t g_prev_pinb = 0xFFU;
static volatile mode_t g_mode = MODE_BIN;

// Helper: escribe LEDs en PORTB preservando PB5 en '1' (pull-up activado)
static inline void LED_WRITE(uint8_t v) {
	PORTB = (uint8_t)((v & (uint8_t)~BTN_MASK_PB) | BTN_MASK_PB);
 2fe:	8d 2f       	mov	r24, r29
 300:	80 62       	ori	r24, 0x20	; 32
 302:	85 b9       	out	0x05, r24	; 5
	for (uint8_t c = 0U; c < PATTERN_CYCLES && !abort_requested(); c++) {
		// Dos LEDs viajando juntos LSB -> MSB
		uint8_t v = 0x03U; // 0b00000011
		for (uint8_t i = 0; i < 7 && !abort_requested(); i++) {
			LED_WRITE(v);
			delay_abort_ms(80);
 304:	80 e5       	ldi	r24, 0x50	; 80
 306:	90 e0       	ldi	r25, 0x00	; 0
 308:	0e 94 9f 02 	call	0x53e	; 0x53e <delay_abort_ms>
			v <<= 1;
 30c:	dd 0f       	add	r29, r29
static void pattern_pingpong(void)
{
	for (uint8_t c = 0U; c < PATTERN_CYCLES && !abort_requested(); c++) {
		// Dos LEDs viajando juntos LSB -> MSB
		uint8_t v = 0x03U; // 0b00000011
		for (uint8_t i = 0; i < 7 && !abort_requested(); i++) {
 30e:	cf 5f       	subi	r28, 0xFF	; 255
 310:	02 c0       	rjmp	.+4      	; 0x316 <pattern_pingpong+0x22>
 312:	c0 e0       	ldi	r28, 0x00	; 0
 314:	d3 e0       	ldi	r29, 0x03	; 3
 316:	c7 30       	cpi	r28, 0x07	; 7
 318:	20 f4       	brcc	.+8      	; 0x322 <pattern_pingpong+0x2e>
	PORTB = (uint8_t)((v & (uint8_t)~BTN_MASK_PB) | BTN_MASK_PB);
}

//ABORTAR
static inline uint8_t abort_requested(void) {
	return (g_btn_flags != 0U);
 31a:	80 91 03 01 	lds	r24, 0x0103	; 0x800103 <g_btn_flags>
static void pattern_pingpong(void)
{
	for (uint8_t c = 0U; c < PATTERN_CYCLES && !abort_requested(); c++) {
		// Dos LEDs viajando juntos LSB -> MSB
		uint8_t v = 0x03U; // 0b00000011
		for (uint8_t i = 0; i < 7 && !abort_requested(); i++) {
 31e:	88 23       	and	r24, r24
 320:	71 f3       	breq	.-36     	; 0x2fe <pattern_pingpong+0xa>
	PORTB = (uint8_t)((v & (uint8_t)~BTN_MASK_PB) | BTN_MASK_PB);
}

//ABORTAR
static inline uint8_t abort_requested(void) {
	return (g_btn_flags != 0U);
 322:	80 91 03 01 	lds	r24, 0x0103	; 0x800103 <g_btn_flags>
		for (uint8_t i = 0; i < 7 && !abort_requested(); i++) {
			LED_WRITE(v);
			delay_abort_ms(80);
			v <<= 1;
		}
		if (abort_requested()) return;
 326:	81 11       	cpse	r24, r1
 328:	19 c0       	rjmp	.+50     	; 0x35c <pattern_pingpong+0x68>
 32a:	c0 e0       	ldi	r28, 0x00	; 0
 32c:	d0 ec       	ldi	r29, 0xC0	; 192
 32e:	09 c0       	rjmp	.+18     	; 0x342 <pattern_pingpong+0x4e>
static volatile uint8_t g_prev_pinb = 0xFFU;
static volatile mode_t g_mode = MODE_BIN;

// Helper: escribe LEDs en PORTB preservando PB5 en '1' (pull-up activado)
static inline void LED_WRITE(uint8_t v) {
	PORTB = (uint8_t)((v & (uint8_t)~BTN_MASK_PB) | BTN_MASK_PB);
 330:	8d 2f       	mov	r24, r29
 332:	80 62       	ori	r24, 0x20	; 32
 334:	85 b9       	out	0x05, r24	; 5
		if (abort_requested()) return;
		// Dos LEDs viajando juntos MSB -> LSB
		v = 0xC0U; // 0b11000000
		for (uint8_t i = 0; i < 7 && !abort_requested(); i++) {
			LED_WRITE(v);
			delay_abort_ms(80);
 336:	80 e5       	ldi	r24, 0x50	; 80
 338:	90 e0       	ldi	r25, 0x00	; 0
 33a:	0e 94 9f 02 	call	0x53e	; 0x53e <delay_abort_ms>
			v >>= 1;
 33e:	d6 95       	lsr	r29
			v <<= 1;
		}
		if (abort_requested()) return;
		// Dos LEDs viajando juntos MSB -> LSB
		v = 0xC0U; // 0b11000000
		for (uint8_t i = 0; i < 7 && !abort_requested(); i++) {
 340:	cf 5f       	subi	r28, 0xFF	; 255
 342:	c7 30       	cpi	r28, 0x07	; 7
 344:	20 f4       	brcc	.+8      	; 0x34e <pattern_pingpong+0x5a>
	PORTB = (uint8_t)((v & (uint8_t)~BTN_MASK_PB) | BTN_MASK_PB);
}

//ABORTAR
static inline uint8_t abort_requested(void) {
	return (g_btn_flags != 0U);
 346:	80 91 03 01 	lds	r24, 0x0103	; 0x800103 <g_btn_flags>
			v <<= 1;
		}
		if (abort_requested()) return;
		// Dos LEDs viajando juntos MSB -> LSB
		v = 0xC0U; // 0b11000000
		for (uint8_t i = 0; i < 7 && !abort_requested(); i++) {
 34a:	88 23       	and	r24, r24
 34c:	89 f3       	breq	.-30     	; 0x330 <pattern_pingpong+0x3c>
	}
}

static void pattern_pingpong(void)
{
	for (uint8_t c = 0U; c < PATTERN_CYCLES && !abort_requested(); c++) {
 34e:	1f 5f       	subi	r17, 0xFF	; 255
 350:	14 30       	cpi	r17, 0x04	; 4
 352:	20 f4       	brcc	.+8      	; 0x35c <pattern_pingpong+0x68>
	PORTB = (uint8_t)((v & (uint8_t)~BTN_MASK_PB) | BTN_MASK_PB);
}

//ABORTAR
static inline uint8_t abort_requested(void) {
	return (g_btn_flags != 0U);
 354:	80 91 03 01 	lds	r24, 0x0103	; 0x800103 <g_btn_flags>
	}
}

static void pattern_pingpong(void)
{
	for (uint8_t c = 0U; c < PATTERN_CYCLES && !abort_requested(); c++) {
 358:	88 23       	and	r24, r24
 35a:	d9 f2       	breq	.-74     	; 0x312 <pattern_pingpong+0x1e>
			LED_WRITE(v);
			delay_abort_ms(80);
			v >>= 1;
		}
	}
}
 35c:	df 91       	pop	r29
 35e:	cf 91       	pop	r28
 360:	1f 91       	pop	r17
 362:	08 95       	ret

Disassembly of section .text.pattern_alternate:

000004be <pattern_alternate>:

static void pattern_alternate(void)
{
 4be:	cf 93       	push	r28
	for (uint8_t c = 0U; c < PATTERN_CYCLES && !abort_requested(); c++) {
 4c0:	c0 e0       	ldi	r28, 0x00	; 0
 4c2:	15 c0       	rjmp	.+42     	; 0x4ee <pattern_alternate+0x30>
static volatile uint8_t g_prev_pinb = 0xFFU;
static volatile mode_t g_mode = MODE_BIN;

// Helper: escribe LEDs en PORTB preservando PB5 en '1' (pull-up activado)
static inline void LED_WRITE(uint8_t v) {
	PORTB = (uint8_t)((v & (uint8_t)~BTN_MASK_PB) | BTN_MASK_PB);
 4c4:	83 e3       	ldi	r24, 0x33	; 51
 4c6:	85 b9       	out	0x05, r24	; 5
}

static void pattern_alternate(void)
{
	for (uint8_t c = 0U; c < PATTERN_CYCLES && !abort_requested(); c++) {
		LED_WRITE(0x33); delay_abort_ms(150); if (abort_requested()) return;
 4c8:	86 e9       	ldi	r24, 0x96	; 150
 4ca:	90 e0       	ldi	r25, 0x00	; 0
 4cc:	0e 94 9f 02 	call	0x53e	; 0x53e <delay_abort_ms>
	PORTB = (uint8_t)((v & (uint8_t)~BTN_MASK_PB) | BTN_MASK_PB);
}

//ABORTAR
static inline uint8_t abort_requested(void) {
	return (g_btn_flags != 0U);
 4d0:	80 91 03 01 	lds	r24, 0x0103	; 0x800103 <g_btn_flags>
}

static void pattern_alternate(void)
{
	for (uint8_t c = 0U; c < PATTERN_CYCLES && !abort_requested(); c++) {
		LED_WRITE(0x33); delay_abort_ms(150); if (abort_requested()) return;
 4d4:	81 11       	cpse	r24, r1
 4d6:	11 c0       	rjmp	.+34     	; 0x4fa <pattern_alternate+0x3c>
static volatile uint8_t g_prev_pinb = 0xFFU;
static volatile mode_t g_mode = MODE_BIN;

// Helper: escribe LEDs en PORTB preservando PB5 en '1' (pull-up activado)
static inline void LED_WRITE(uint8_t v) {
	PORTB = (uint8_t)((v & (uint8_t)~BTN_MASK_PB) | BTN_MASK_PB);
 4d8:	8c ee       	ldi	r24, 0xEC	; 236
 4da:	85 b9       	out	0x05, r24	; 5

static void pattern_alternate(void)
{
	for (uint8_t c = 0U; c < PATTERN_CYCLES && !abort_requested(); c++) {
		LED_WRITE(0x33); delay_abort_ms(150); if (abort_requested()) return;
		LED_WRITE(0xCC); delay_abort_ms(150); if (abort_requested()) return;
 4dc:	86 e9       	ldi	r24, 0x96	; 150
 4de:	90 e0       	ldi	r25, 0x00	; 0
 4e0:	0e 94 9f 02 	call	0x53e	; 0x53e <delay_abort_ms>
	PORTB = (uint8_t)((v & (uint8_t)~BTN_MASK_PB) | BTN_MASK_PB);
}

//ABORTAR
static inline uint8_t abort_requested(void) {
	return (g_btn_flags != 0U);
 4e4:	80 91 03 01 	lds	r24, 0x0103	; 0x800103 <g_btn_flags>

static void pattern_alternate(void)
{
	for (uint8_t c = 0U; c < PATTERN_CYCLES && !abort_requested(); c++) {
		LED_WRITE(0x33); delay_abort_ms(150); if (abort_requested()) return;
		LED_WRITE(0xCC); delay_abort_ms(150); if (abort_requested()) return;
 4e8:	81 11       	cpse	r24, r1
 4ea:	07 c0       	rjmp	.+14     	; 0x4fa <pattern_alternate+0x3c>
	}
}

static void pattern_alternate(void)
{
	for (uint8_t c = 0U; c < PATTERN_CYCLES && !abort_requested(); c++) {
 4ec:	cf 5f       	subi	r28, 0xFF	; 255
 4ee:	c4 30       	cpi	r28, 0x04	; 4
 4f0:	20 f4       	brcc	.+8      	; 0x4fa <pattern_alternate+0x3c>
	PORTB = (uint8_t)((v & (uint8_t)~BTN_MASK_PB) | BTN_MASK_PB);
}

//ABORTAR
static inline uint8_t abort_requested(void) {
	return (g_btn_flags != 0U);
 4f2:	80 91 03 01 	lds	r24, 0x0103	; 0x800103 <g_btn_flags>
	}
}

static void pattern_alternate(void)
{
	for (uint8_t c = 0U; c < PATTERN_CYCLES && !abort_requested(); c++) {
 4f6:	88 23       	and	r24, r24
 4f8:	29 f3       	breq	.-54     	; 0x4c4 <pattern_alternate+0x6>
		LED_WRITE(0x33); delay_abort_ms(150); if (abort_requested()) return;
		LED_WRITE(0xCC); delay_abort_ms(150); if (abort_requested()) return;
	}
}
 4fa:	cf 91       	pop	r28
 4fc:	08 95       	ret

Disassembly of section .text.pattern_fill:

000003d0 <pattern_fill>:

static void pattern_fill(void)
{
 3d0:	1f 93       	push	r17
 3d2:	cf 93       	push	r28
 3d4:	df 93       	push	r29
	for (uint8_t c = 0U; c < PATTERN_CYCLES && !abort_requested(); c++) {
 3d6:	10 e0       	ldi	r17, 0x00	; 0
 3d8:	1f c0       	rjmp	.+62     	; 0x418 <__EEPROM_REGION_LENGTH__+0x18>
		uint8_t mask = 0x00U;
		for (uint8_t i = 0U; i < 8U && !abort_requested(); i++) {
			mask = (uint8_t)((mask << 1) | 0x01U);
 3da:	8d 2f       	mov	r24, r29
 3dc:	88 0f       	add	r24, r24
 3de:	d8 2f       	mov	r29, r24
 3e0:	d1 60       	ori	r29, 0x01	; 1
static volatile uint8_t g_prev_pinb = 0xFFU;
static volatile mode_t g_mode = MODE_BIN;

// Helper: escribe LEDs en PORTB preservando PB5 en '1' (pull-up activado)
static inline void LED_WRITE(uint8_t v) {
	PORTB = (uint8_t)((v & (uint8_t)~BTN_MASK_PB) | BTN_MASK_PB);
 3e2:	81 62       	ori	r24, 0x21	; 33
 3e4:	85 b9       	out	0x05, r24	; 5
	for (uint8_t c = 0U; c < PATTERN_CYCLES && !abort_requested(); c++) {
		uint8_t mask = 0x00U;
		for (uint8_t i = 0U; i < 8U && !abort_requested(); i++) {
			mask = (uint8_t)((mask << 1) | 0x01U);
			LED_WRITE(mask);
			delay_abort_ms(100);
 3e6:	84 e6       	ldi	r24, 0x64	; 100
 3e8:	90 e0       	ldi	r25, 0x00	; 0
 3ea:	0e 94 9f 02 	call	0x53e	; 0x53e <delay_abort_ms>

static void pattern_fill(void)
{
	for (uint8_t c = 0U; c < PATTERN_CYCLES && !abort_requested(); c++) {
		uint8_t mask = 0x00U;
		for (uint8_t i = 0U; i < 8U && !abort_requested(); i++) {
 3ee:	cf 5f       	subi	r28, 0xFF	; 255
 3f0:	02 c0       	rjmp	.+4      	; 0x3f6 <pattern_fill+0x26>
 3f2:	c0 e0       	ldi	r28, 0x00	; 0
 3f4:	d0 e0       	ldi	r29, 0x00	; 0
 3f6:	c8 30       	cpi	r28, 0x08	; 8
 3f8:	20 f4       	brcc	.+8      	; 0x402 <__EEPROM_REGION_LENGTH__+0x2>
	PORTB = (uint8_t)((v & (uint8_t)~BTN_MASK_PB) | BTN_MASK_PB);
}

//ABORTAR
static inline uint8_t abort_requested(void) {
	return (g_btn_flags != 0U);
 3fa:	80 91 03 01 	lds	r24, 0x0103	; 0x800103 <g_btn_flags>

static void pattern_fill(void)
{
	for (uint8_t c = 0U; c < PATTERN_CYCLES && !abort_requested(); c++) {
		uint8_t mask = 0x00U;
		for (uint8_t i = 0U; i < 8U && !abort_requested(); i++) {
 3fe:	88 23       	and	r24, r24
 400:	61 f3       	breq	.-40     	; 0x3da <pattern_fill+0xa>
static volatile uint8_t g_prev_pinb = 0xFFU;
static volatile mode_t g_mode = MODE_BIN;

// Helper: escribe LEDs en PORTB preservando PB5 en '1' (pull-up activado)
static inline void LED_WRITE(uint8_t v) {
	PORTB = (uint8_t)((v & (uint8_t)~BTN_MASK_PB) | BTN_MASK_PB);
 402:	80 e2       	ldi	r24, 0x20	; 32
 404:	85 b9       	out	0x05, r24	; 5
		for (uint8_t i = 0U; i < 8U && !abort_requested(); i++) {
			mask = (uint8_t)((mask << 1) | 0x01U);
			LED_WRITE(mask);
			delay_abort_ms(100);
		}
		LED_WRITE(0x00); delay_abort_ms(80); if (abort_requested()) return;
 406:	80 e5       	ldi	r24, 0x50	; 80
 408:	90 e0       	ldi	r25, 0x00	; 0
 40a:	0e 94 9f 02 	call	0x53e	; 0x53e <delay_abort_ms>
	PORTB = (uint8_t)((v & (uint8_t)~BTN_MASK_PB) | BTN_MASK_PB);
}

//ABORTAR
static inline uint8_t abort_requested(void) {
	return (g_btn_flags != 0U);
 40e:	80 91 03 01 	lds	r24, 0x0103	; 0x800103 <g_btn_flags>
		for (uint8_t i = 0U; i < 8U && !abort_requested(); i++) {
			mask = (uint8_t)((mask << 1) | 0x01U);
			LED_WRITE(mask);
			delay_abort_ms(100);
		}
		LED_WRITE(0x00); delay_abort_ms(80); if (abort_requested()) return;
 412:	81 11       	cpse	r24, r1
 414:	07 c0       	rjmp	.+14     	; 0x424 <__EEPROM_REGION_LENGTH__+0x24>
	}
}

static void pattern_fill(void)
{
	for (uint8_t c = 0U; c < PATTERN_CYCLES && !abort_requested(); c++) {
 416:	1f 5f       	subi	r17, 0xFF	; 255
 418:	14 30       	cpi	r17, 0x04	; 4
 41a:	20 f4       	brcc	.+8      	; 0x424 <__EEPROM_REGION_LENGTH__+0x24>
	PORTB = (uint8_t)((v & (uint8_t)~BTN_MASK_PB) | BTN_MASK_PB);
}

//ABORTAR
static inline uint8_t abort_requested(void) {
	return (g_btn_flags != 0U);
 41c:	80 91 03 01 	lds	r24, 0x0103	; 0x800103 <g_btn_flags>
	}
}

static void pattern_fill(void)
{
	for (uint8_t c = 0U; c < PATTERN_CYCLES && !abort_requested(); c++) {
 420:	88 23       	and	r24, r24
 422:	39 f3       	breq	.-50     	; 0x3f2 <pattern_fill+0x22>
			LED_WRITE(mask);
			delay_abort_ms(100);
		}
		LED_WRITE(0x00); delay_abort_ms(80); if (abort_requested()) return;
	}
}
 424:	df 91       	pop	r29
 426:	cf 91       	pop	r28
 428:	1f 91       	pop	r17
 42a:	08 95       	ret

Disassembly of section .text.pattern_random:

0000026c <pattern_random>:

static void pattern_random(void)
{
 26c:	cf 93       	push	r28
 26e:	df 93       	push	r29
	for (uint8_t c = 0U; c < PATTERN_CYCLES && !abort_requested(); c++)
 270:	d0 e0       	ldi	r29, 0x00	; 0
 272:	37 c0       	rjmp	.+110    	; 0x2e2 <pattern_random+0x76>
	{
		// AVANZAMOS PORTB DE 0 A 7
		for (uint8_t i = 0U; i < 8U && !abort_requested(); i++)
		{
			LED_WRITE((uint8_t)(1U << i));
 274:	81 e0       	ldi	r24, 0x01	; 1
 276:	90 e0       	ldi	r25, 0x00	; 0
 278:	0c 2e       	mov	r0, r28
 27a:	02 c0       	rjmp	.+4      	; 0x280 <pattern_random+0x14>
 27c:	88 0f       	add	r24, r24
 27e:	99 1f       	adc	r25, r25
 280:	0a 94       	dec	r0
 282:	e2 f7       	brpl	.-8      	; 0x27c <pattern_random+0x10>
static volatile uint8_t g_prev_pinb = 0xFFU;
static volatile mode_t g_mode = MODE_BIN;

// Helper: escribe LEDs en PORTB preservando PB5 en '1' (pull-up activado)
static inline void LED_WRITE(uint8_t v) {
	PORTB = (uint8_t)((v & (uint8_t)~BTN_MASK_PB) | BTN_MASK_PB);
 284:	80 62       	ori	r24, 0x20	; 32
 286:	85 b9       	out	0x05, r24	; 5
	{
		// AVANZAMOS PORTB DE 0 A 7
		for (uint8_t i = 0U; i < 8U && !abort_requested(); i++)
		{
			LED_WRITE((uint8_t)(1U << i));
			delay_abort_ms(80);
 288:	80 e5       	ldi	r24, 0x50	; 80
 28a:	90 e0       	ldi	r25, 0x00	; 0
 28c:	0e 94 9f 02 	call	0x53e	; 0x53e <delay_abort_ms>
static void pattern_random(void)
{
	for (uint8_t c = 0U; c < PATTERN_CYCLES && !abort_requested(); c++)
	{
		// AVANZAMOS PORTB DE 0 A 7
		for (uint8_t i = 0U; i < 8U && !abort_requested(); i++)
 290:	cf 5f       	subi	r28, 0xFF	; 255
 292:	01 c0       	rjmp	.+2      	; 0x296 <pattern_random+0x2a>
 294:	c0 e0       	ldi	r28, 0x00	; 0
 296:	c8 30       	cpi	r28, 0x08	; 8
 298:	20 f4       	brcc	.+8      	; 0x2a2 <pattern_random+0x36>
	PORTB = (uint8_t)((v & (uint8_t)~BTN_MASK_PB) | BTN_MASK_PB);
}

//ABORTAR
static inline uint8_t abort_requested(void) {
	return (g_btn_flags != 0U);
 29a:	80 91 03 01 	lds	r24, 0x0103	; 0x800103 <g_btn_flags>
static void pattern_random(void)
{
	for (uint8_t c = 0U; c < PATTERN_CYCLES && !abort_requested(); c++)
	{
		// AVANZAMOS PORTB DE 0 A 7
		for (uint8_t i = 0U; i < 8U && !abort_requested(); i++)
 29e:	88 23       	and	r24, r24
 2a0:	49 f3       	breq	.-46     	; 0x274 <pattern_random+0x8>
	PORTB = (uint8_t)((v & (uint8_t)~BTN_MASK_PB) | BTN_MASK_PB);
}

//ABORTAR
static inline uint8_t abort_requested(void) {
	return (g_btn_flags != 0U);
 2a2:	80 91 03 01 	lds	r24, 0x0103	; 0x800103 <g_btn_flags>
		for (uint8_t i = 0U; i < 8U && !abort_requested(); i++)
		{
			LED_WRITE((uint8_t)(1U << i));
			delay_abort_ms(80);
		}
		if (abort_requested()) return;
 2a6:	81 11       	cpse	r24, r1
 2a8:	22 c0       	rjmp	.+68     	; 0x2ee <pattern_random+0x82>
 2aa:	c7 e0       	ldi	r28, 0x07	; 7
 2ac:	0f c0       	rjmp	.+30     	; 0x2cc <pattern_random+0x60>

		// REGRESAMOS DE PORTB (7 -> 0)
		for (int8_t i = 7; i >= 0 && !abort_requested(); i--)
		{
			LED_WRITE((uint8_t)(1U << i));
 2ae:	81 e0       	ldi	r24, 0x01	; 1
 2b0:	90 e0       	ldi	r25, 0x00	; 0
 2b2:	0c 2e       	mov	r0, r28
 2b4:	02 c0       	rjmp	.+4      	; 0x2ba <pattern_random+0x4e>
 2b6:	88 0f       	add	r24, r24
 2b8:	99 1f       	adc	r25, r25
 2ba:	0a 94       	dec	r0
 2bc:	e2 f7       	brpl	.-8      	; 0x2b6 <pattern_random+0x4a>
static volatile uint8_t g_prev_pinb = 0xFFU;
static volatile mode_t g_mode = MODE_BIN;

// Helper: escribe LEDs en PORTB preservando PB5 en '1' (pull-up activado)
static inline void LED_WRITE(uint8_t v) {
	PORTB = (uint8_t)((v & (uint8_t)~BTN_MASK_PB) | BTN_MASK_PB);
 2be:	80 62       	ori	r24, 0x20	; 32
 2c0:	85 b9       	out	0x05, r24	; 5

		// REGRESAMOS DE PORTB (7 -> 0)
		for (int8_t i = 7; i >= 0 && !abort_requested(); i--)
		{
			LED_WRITE((uint8_t)(1U << i));
			delay_abort_ms(80);
 2c2:	80 e5       	ldi	r24, 0x50	; 80
 2c4:	90 e0       	ldi	r25, 0x00	; 0
 2c6:	0e 94 9f 02 	call	0x53e	; 0x53e <delay_abort_ms>
			delay_abort_ms(80);
		}
		if (abort_requested()) return;

		// REGRESAMOS DE PORTB (7 -> 0)
		for (int8_t i = 7; i >= 0 && !abort_requested(); i--)
 2ca:	c1 50       	subi	r28, 0x01	; 1
 2cc:	cc 23       	and	r28, r28
 2ce:	24 f0       	brlt	.+8      	; 0x2d8 <pattern_random+0x6c>
	PORTB = (uint8_t)((v & (uint8_t)~BTN_MASK_PB) | BTN_MASK_PB);
}

//ABORTAR
static inline uint8_t abort_requested(void) {
	return (g_btn_flags != 0U);
 2d0:	80 91 03 01 	lds	r24, 0x0103	; 0x800103 <g_btn_flags>
			delay_abort_ms(80);
		}
		if (abort_requested()) return;

		// REGRESAMOS DE PORTB (7 -> 0)
		for (int8_t i = 7; i >= 0 && !abort_requested(); i--)
 2d4:	88 23       	and	r24, r24
 2d6:	59 f3       	breq	.-42     	; 0x2ae <pattern_random+0x42>
	PORTB = (uint8_t)((v & (uint8_t)~BTN_MASK_PB) | BTN_MASK_PB);
}

//ABORTAR
static inline uint8_t abort_requested(void) {
	return (g_btn_flags != 0U);
 2d8:	80 91 03 01 	lds	r24, 0x0103	; 0x800103 <g_btn_flags>
		for (int8_t i = 7; i >= 0 && !abort_requested(); i--)
		{
			LED_WRITE((uint8_t)(1U << i));
			delay_abort_ms(80);
		}
		if (abort_requested()) return;
 2dc:	81 11       	cpse	r24, r1
 2de:	07 c0       	rjmp	.+14     	; 0x2ee <pattern_random+0x82>
	}
}

static void pattern_random(void)
{
	for (uint8_t c = 0U; c < PATTERN_CYCLES && !abort_requested(); c++)
 2e0:	df 5f       	subi	r29, 0xFF	; 255
 2e2:	d4 30       	cpi	r29, 0x04	; 4
 2e4:	20 f4       	brcc	.+8      	; 0x2ee <pattern_random+0x82>
	PORTB = (uint8_t)((v & (uint8_t)~BTN_MASK_PB) | BTN_MASK_PB);
}

//ABORTAR
static inline uint8_t abort_requested(void) {
	return (g_btn_flags != 0U);
 2e6:	80 91 03 01 	lds	r24, 0x0103	; 0x800103 <g_btn_flags>
	}
}

static void pattern_random(void)
{
	for (uint8_t c = 0U; c < PATTERN_CYCLES && !abort_requested(); c++)
 2ea:	88 23       	and	r24, r24
 2ec:	99 f2       	breq	.-90     	; 0x294 <pattern_random+0x28>
			LED_WRITE((uint8_t)(1U << i));
			delay_abort_ms(80);
		}
		if (abort_requested()) return;
	}
}
 2ee:	df 91       	pop	r29
 2f0:	cf 91       	pop	r28
 2f2:	08 95       	ret

Disassembly of section .text.run_pattern:

000004fe <run_pattern>:

//EJECTUA EL PATRON SOLICITADO Y DEVUELVE 1 SI FUE ABORTADO, 0 SI TERMINO LOS 4 CICLOS
static uint8_t run_pattern(mode_t m)
{
	switch (m) {
 4fe:	83 30       	cpi	r24, 0x03	; 3
 500:	89 f0       	breq	.+34     	; 0x524 <run_pattern+0x26>
 502:	28 f4       	brcc	.+10     	; 0x50e <run_pattern+0x10>
 504:	81 30       	cpi	r24, 0x01	; 1
 506:	41 f0       	breq	.+16     	; 0x518 <run_pattern+0x1a>
 508:	82 30       	cpi	r24, 0x02	; 2
 50a:	49 f0       	breq	.+18     	; 0x51e <run_pattern+0x20>
 50c:	13 c0       	rjmp	.+38     	; 0x534 <run_pattern+0x36>
 50e:	84 30       	cpi	r24, 0x04	; 4
 510:	61 f0       	breq	.+24     	; 0x52a <run_pattern+0x2c>
 512:	85 30       	cpi	r24, 0x05	; 5
 514:	69 f0       	breq	.+26     	; 0x530 <run_pattern+0x32>
 516:	0e c0       	rjmp	.+28     	; 0x534 <run_pattern+0x36>
		case MODE_MARQUEE:   pattern_marquee();   break;
 518:	0e 94 3f 02 	call	0x47e	; 0x47e <pattern_marquee>
 51c:	0b c0       	rjmp	.+22     	; 0x534 <run_pattern+0x36>
		case MODE_PINGPONG:  pattern_pingpong();  break;
 51e:	0e 94 7a 01 	call	0x2f4	; 0x2f4 <pattern_pingpong>
 522:	08 c0       	rjmp	.+16     	; 0x534 <run_pattern+0x36>
		case MODE_ALTERNATE: pattern_alternate(); break;
 524:	0e 94 5f 02 	call	0x4be	; 0x4be <pattern_alternate>
 528:	05 c0       	rjmp	.+10     	; 0x534 <run_pattern+0x36>
		case MODE_FILL:      pattern_fill();      break;
 52a:	0e 94 e8 01 	call	0x3d0	; 0x3d0 <pattern_fill>
 52e:	02 c0       	rjmp	.+4      	; 0x534 <run_pattern+0x36>
		case MODE_RANDOM:    pattern_random();    break;
 530:	0e 94 36 01 	call	0x26c	; 0x26c <pattern_random>
	PORTB = (uint8_t)((v & (uint8_t)~BTN_MASK_PB) | BTN_MASK_PB);
}

//ABORTAR
static inline uint8_t abort_requested(void) {
	return (g_btn_flags != 0U);
 534:	80 91 03 01 	lds	r24, 0x0103	; 0x800103 <g_btn_flags>
		case MODE_ALTERNATE: pattern_alternate(); break;
		case MODE_FILL:      pattern_fill();      break;
		case MODE_RANDOM:    pattern_random();    break;
		default: break;
	}
	return abort_requested() ? 1U : 0U;
 538:	81 11       	cpse	r24, r1
 53a:	81 e0       	ldi	r24, 0x01	; 1
}
 53c:	08 95       	ret

Disassembly of section .text.__vector_3:

0000042c <__vector_3>:
}

// --- VECTORES DE INTERRUPCION ---
// PB5 -> PCINT0
ISR(PCINT0_vect)
{
 42c:	1f 92       	push	r1
 42e:	0f 92       	push	r0
 430:	0f b6       	in	r0, 0x3f	; 63
 432:	0f 92       	push	r0
 434:	11 24       	eor	r1, r1
 436:	2f 93       	push	r18
 438:	8f 93       	push	r24
 43a:	9f 93       	push	r25
 43c:	ef 93       	push	r30
 43e:	ff 93       	push	r31
	const uint8_t curr    = PINB;
 440:	93 b1       	in	r25, 0x03	; 3
	const uint8_t changed = (uint8_t)((g_prev_pinb ^ curr) & BTN_MASK_PB);
 442:	80 91 01 01 	lds	r24, 0x0101	; 0x800101 <g_prev_pinb>
 446:	89 27       	eor	r24, r25
 448:	80 72       	andi	r24, 0x20	; 32
	const uint8_t falling = (uint8_t)(changed & (uint8_t)(~curr)); // flanco 1->0
 44a:	29 2f       	mov	r18, r25
 44c:	20 95       	com	r18

	if (falling & (1U<<PB5)) { g_btn_flags |= (1U<<2); PCMSK0 &= (uint8_t)~(1U<<PCINT5); }
 44e:	82 23       	and	r24, r18
 450:	51 f0       	breq	.+20     	; 0x466 <__vector_3+0x3a>
 452:	80 91 03 01 	lds	r24, 0x0103	; 0x800103 <g_btn_flags>
 456:	84 60       	ori	r24, 0x04	; 4
 458:	80 93 03 01 	sts	0x0103, r24	; 0x800103 <g_btn_flags>
 45c:	eb e6       	ldi	r30, 0x6B	; 107
 45e:	f0 e0       	ldi	r31, 0x00	; 0
 460:	80 81       	ld	r24, Z
 462:	8f 7d       	andi	r24, 0xDF	; 223
 464:	80 83       	st	Z, r24

	g_prev_pinb = curr;
 466:	90 93 01 01 	sts	0x0101, r25	; 0x800101 <g_prev_pinb>
}
 46a:	ff 91       	pop	r31
 46c:	ef 91       	pop	r30
 46e:	9f 91       	pop	r25
 470:	8f 91       	pop	r24
 472:	2f 91       	pop	r18
 474:	0f 90       	pop	r0
 476:	0f be       	out	0x3f, r0	; 63
 478:	0f 90       	pop	r0
 47a:	1f 90       	pop	r1
 47c:	18 95       	reti

Disassembly of section .text.__vector_4:

00000364 <__vector_4>:

// PC0-PC1 -> PCINT1
ISR(PCINT1_vect)
{
 364:	1f 92       	push	r1
 366:	0f 92       	push	r0
 368:	0f b6       	in	r0, 0x3f	; 63
 36a:	0f 92       	push	r0
 36c:	11 24       	eor	r1, r1
 36e:	2f 93       	push	r18
 370:	8f 93       	push	r24
 372:	9f 93       	push	r25
 374:	ef 93       	push	r30
 376:	ff 93       	push	r31
	const uint8_t curr    = PINC;
 378:	26 b1       	in	r18, 0x06	; 6
	const uint8_t changed = (uint8_t)((g_prev_pinc ^ curr) & BTN_MASK_PC);
 37a:	80 91 02 01 	lds	r24, 0x0102	; 0x800102 <g_prev_pinc>
 37e:	82 27       	eor	r24, r18
 380:	83 70       	andi	r24, 0x03	; 3
	const uint8_t falling = (uint8_t)(changed & (uint8_t)(~curr)); // flanco 1->0
 382:	92 2f       	mov	r25, r18
 384:	90 95       	com	r25
 386:	89 23       	and	r24, r25

	if (falling & (1U<<PC0)) { g_btn_flags |= (1U<<0); PCMSK1 &= (uint8_t)~(1U<<PCINT8);  }
 388:	80 ff       	sbrs	r24, 0
 38a:	0a c0       	rjmp	.+20     	; 0x3a0 <__vector_4+0x3c>
 38c:	90 91 03 01 	lds	r25, 0x0103	; 0x800103 <g_btn_flags>
 390:	91 60       	ori	r25, 0x01	; 1
 392:	90 93 03 01 	sts	0x0103, r25	; 0x800103 <g_btn_flags>
 396:	ec e6       	ldi	r30, 0x6C	; 108
 398:	f0 e0       	ldi	r31, 0x00	; 0
 39a:	90 81       	ld	r25, Z
 39c:	9e 7f       	andi	r25, 0xFE	; 254
 39e:	90 83       	st	Z, r25
	if (falling & (1U<<PC1)) { g_btn_flags |= (1U<<1); PCMSK1 &= (uint8_t)~(1U<<PCINT9);  }
 3a0:	82 70       	andi	r24, 0x02	; 2
 3a2:	51 f0       	breq	.+20     	; 0x3b8 <__vector_4+0x54>
 3a4:	80 91 03 01 	lds	r24, 0x0103	; 0x800103 <g_btn_flags>
 3a8:	82 60       	ori	r24, 0x02	; 2
 3aa:	80 93 03 01 	sts	0x0103, r24	; 0x800103 <g_btn_flags>
 3ae:	ec e6       	ldi	r30, 0x6C	; 108
 3b0:	f0 e0       	ldi	r31, 0x00	; 0
 3b2:	80 81       	ld	r24, Z
 3b4:	8d 7f       	andi	r24, 0xFD	; 253
 3b6:	80 83       	st	Z, r24

	g_prev_pinc = curr;
 3b8:	20 93 02 01 	sts	0x0102, r18	; 0x800102 <g_prev_pinc>
}
 3bc:	ff 91       	pop	r31
 3be:	ef 91       	pop	r30
 3c0:	9f 91       	pop	r25
 3c2:	8f 91       	pop	r24
 3c4:	2f 91       	pop	r18
 3c6:	0f 90       	pop	r0
 3c8:	0f be       	out	0x3f, r0	; 63
 3ca:	0f 90       	pop	r0
 3cc:	1f 90       	pop	r1
 3ce:	18 95       	reti

Disassembly of section .text.__vector_1:

00000566 <__vector_1>:

// INT0 (PD2) - activa MODE_FILL (bit 3 en g_btn_flags)
ISR(INT0_vect) {
 566:	1f 92       	push	r1
 568:	0f 92       	push	r0
 56a:	0f b6       	in	r0, 0x3f	; 63
 56c:	0f 92       	push	r0
 56e:	11 24       	eor	r1, r1
 570:	8f 93       	push	r24
	g_btn_flags |= (1U << 3);
 572:	80 91 03 01 	lds	r24, 0x0103	; 0x800103 <g_btn_flags>
 576:	88 60       	ori	r24, 0x08	; 8
 578:	80 93 03 01 	sts	0x0103, r24	; 0x800103 <g_btn_flags>
	EIMSK &= (uint8_t)~(1U << INT0);
 57c:	8d b3       	in	r24, 0x1d	; 29
 57e:	8e 7f       	andi	r24, 0xFE	; 254
 580:	8d bb       	out	0x1d, r24	; 29
}
 582:	8f 91       	pop	r24
 584:	0f 90       	pop	r0
 586:	0f be       	out	0x3f, r0	; 63
 588:	0f 90       	pop	r0
 58a:	1f 90       	pop	r1
 58c:	18 95       	reti

Disassembly of section .text.__vector_2:

0000058e <__vector_2>:

// INT1 (PD3) - activa MODE_RANDOM (bit 4 en g_btn_flags)
ISR(INT1_vect) {
 58e:	1f 92       	push	r1
 590:	0f 92       	push	r0
 592:	0f b6       	in	r0, 0x3f	; 63
 594:	0f 92       	push	r0
 596:	11 24       	eor	r1, r1
 598:	8f 93       	push	r24
	g_btn_flags |= (1U << 4);
 59a:	80 91 03 01 	lds	r24, 0x0103	; 0x800103 <g_btn_flags>
 59e:	80 61       	ori	r24, 0x10	; 16
 5a0:	80 93 03 01 	sts	0x0103, r24	; 0x800103 <g_btn_flags>
	EIMSK &= (uint8_t)~(1U << INT1);
 5a4:	8d b3       	in	r24, 0x1d	; 29
 5a6:	8d 7f       	andi	r24, 0xFD	; 253
 5a8:	8d bb       	out	0x1d, r24	; 29
}
 5aa:	8f 91       	pop	r24
 5ac:	0f 90       	pop	r0
 5ae:	0f be       	out	0x3f, r0	; 63
 5b0:	0f 90       	pop	r0
 5b2:	1f 90       	pop	r1
 5b4:	18 95       	reti

Disassembly of section .text.main:

000000ce <main>:

// ----------------------------- MAIN-----------------------------
int main(void)
{
	// Salidas: todos PB como salida excepto PB5 (botón)
	DDRB  = (uint8_t)(0xFFU & (uint8_t)~BTN_MASK_PB); // => PB5 entrada, resto salida
  ce:	8f ed       	ldi	r24, 0xDF	; 223
  d0:	84 b9       	out	0x04, r24	; 4
	PORTB = 0x00U;
  d2:	15 b8       	out	0x05, r1	; 5
	// Pull-up en PB5
	PORTB |= BTN_MASK_PB;
  d4:	85 b1       	in	r24, 0x05	; 5
  d6:	80 62       	ori	r24, 0x20	; 32
  d8:	85 b9       	out	0x05, r24	; 5

	// PC0 y PC1 como entradas con pull-up
	DDRC  &= (uint8_t)~BTN_MASK_PC;
  da:	87 b1       	in	r24, 0x07	; 7
  dc:	8c 7f       	andi	r24, 0xFC	; 252
  de:	87 b9       	out	0x07, r24	; 7
	PORTC |= BTN_MASK_PC;
  e0:	88 b1       	in	r24, 0x08	; 8
  e2:	83 60       	ori	r24, 0x03	; 3
  e4:	88 b9       	out	0x08, r24	; 8

	// INT0 (PD2) e INT1 (PD3) como entradas con pull-up
	DDRD  &= (uint8_t)~((1U << PD2) | (1U << PD3));
  e6:	8a b1       	in	r24, 0x0a	; 10
  e8:	83 7f       	andi	r24, 0xF3	; 243
  ea:	8a b9       	out	0x0a, r24	; 10
	PORTD |= (1U << PD2) | (1U << PD3);
  ec:	8b b1       	in	r24, 0x0b	; 11
  ee:	8c 60       	ori	r24, 0x0C	; 12
  f0:	8b b9       	out	0x0b, r24	; 11

	// PCINT en C (grupo 1) y en B (grupo 0)
	PCICR  |= (1U << PCIE1) | (1U << PCIE0);
  f2:	e8 e6       	ldi	r30, 0x68	; 104
  f4:	f0 e0       	ldi	r31, 0x00	; 0
  f6:	80 81       	ld	r24, Z
  f8:	83 60       	ori	r24, 0x03	; 3
  fa:	80 83       	st	Z, r24
	PCMSK1 |= (1U << PCINT8) | (1U << PCINT9); // PC0, PC1
  fc:	ec e6       	ldi	r30, 0x6C	; 108
  fe:	f0 e0       	ldi	r31, 0x00	; 0
 100:	80 81       	ld	r24, Z
 102:	83 60       	ori	r24, 0x03	; 3
 104:	80 83       	st	Z, r24
	PCMSK0 |= (1U << PCINT5);                  // PB5
 106:	eb e6       	ldi	r30, 0x6B	; 107
 108:	f0 e0       	ldi	r31, 0x00	; 0
 10a:	80 81       	ld	r24, Z
 10c:	80 62       	ori	r24, 0x20	; 32
 10e:	80 83       	st	Z, r24

	// Captura estados iniciales y limpia flags
	g_prev_pinc = PINC;
 110:	86 b1       	in	r24, 0x06	; 6
 112:	80 93 02 01 	sts	0x0102, r24	; 0x800102 <g_prev_pinc>
	g_prev_pinb = PINB;
 116:	83 b1       	in	r24, 0x03	; 3
 118:	80 93 01 01 	sts	0x0101, r24	; 0x800101 <g_prev_pinb>
	PCIFR |= (1U << PCIF1) | (1U << PCIF0);
 11c:	8b b3       	in	r24, 0x1b	; 27
 11e:	83 60       	ori	r24, 0x03	; 3
 120:	8b bb       	out	0x1b, r24	; 27

	// INT0/INT1 flanco de bajada
	EICRA |=  (1U << ISC01);
 122:	e9 e6       	ldi	r30, 0x69	; 105
 124:	f0 e0       	ldi	r31, 0x00	; 0
 126:	80 81       	ld	r24, Z
 128:	82 60       	ori	r24, 0x02	; 2
 12a:	80 83       	st	Z, r24
	EICRA &= ~(1U << ISC00);
 12c:	80 81       	ld	r24, Z
 12e:	8e 7f       	andi	r24, 0xFE	; 254
 130:	80 83       	st	Z, r24
	EICRA |=  (1U << ISC11);
 132:	80 81       	ld	r24, Z
 134:	88 60       	ori	r24, 0x08	; 8
 136:	80 83       	st	Z, r24
	EICRA &= ~(1U << ISC10);
 138:	80 81       	ld	r24, Z
 13a:	8b 7f       	andi	r24, 0xFB	; 251
 13c:	80 83       	st	Z, r24

	EIFR  |= (1U << INTF0) | (1U << INTF1);
 13e:	8c b3       	in	r24, 0x1c	; 28
 140:	83 60       	ori	r24, 0x03	; 3
 142:	8c bb       	out	0x1c, r24	; 28
	EIMSK |= (1U << INT0)  | (1U << INT1);
 144:	8d b3       	in	r24, 0x1d	; 29
 146:	83 60       	ori	r24, 0x03	; 3
 148:	8d bb       	out	0x1d, r24	; 29

	sei();
 14a:	78 94       	sei

	uint8_t count = 0U;
 14c:	c0 e0       	ldi	r28, 0x00	; 0

	for (;;)
	{
		if (g_btn_flags != 0U) {
 14e:	80 91 03 01 	lds	r24, 0x0103	; 0x800103 <g_btn_flags>
 152:	88 23       	and	r24, r24
 154:	09 f4       	brne	.+2      	; 0x158 <main+0x8a>
 156:	7a c0       	rjmp	.+244    	; 0x24c <main+0x17e>
			const uint8_t f = g_btn_flags;
 158:	80 91 03 01 	lds	r24, 0x0103	; 0x800103 <g_btn_flags>
			g_btn_flags = 0U;
 15c:	10 92 03 01 	sts	0x0103, r1	; 0x800103 <g_btn_flags>

			mode_t req = MODE_MARQUEE;
			uint8_t idx = 0U;

			if      (f & (1U<<0)) { req = MODE_MARQUEE;  idx = 0U; }
 160:	80 fd       	sbrc	r24, 0
 162:	0b c0       	rjmp	.+22     	; 0x17a <main+0xac>
			else if (f & (1U<<1)) { req = MODE_PINGPONG; idx = 1U; }
 164:	81 fd       	sbrc	r24, 1
 166:	0c c0       	rjmp	.+24     	; 0x180 <main+0xb2>
			else if (f & (1U<<2)) { req = MODE_ALTERNATE;idx = 2U; }
 168:	82 fd       	sbrc	r24, 2
 16a:	0d c0       	rjmp	.+26     	; 0x186 <main+0xb8>
			else if (f & (1U<<3)) { req = MODE_FILL;     idx = 3U; }
 16c:	83 fd       	sbrc	r24, 3
 16e:	0e c0       	rjmp	.+28     	; 0x18c <main+0xbe>
			else if (f & (1U<<4)) { req = MODE_RANDOM;   idx = 4U; }
 170:	84 fd       	sbrc	r24, 4
 172:	0f c0       	rjmp	.+30     	; 0x192 <main+0xc4>
		if (g_btn_flags != 0U) {
			const uint8_t f = g_btn_flags;
			g_btn_flags = 0U;

			mode_t req = MODE_MARQUEE;
			uint8_t idx = 0U;
 174:	90 e0       	ldi	r25, 0x00	; 0
	{
		if (g_btn_flags != 0U) {
			const uint8_t f = g_btn_flags;
			g_btn_flags = 0U;

			mode_t req = MODE_MARQUEE;
 176:	81 e0       	ldi	r24, 0x01	; 1
 178:	0e c0       	rjmp	.+28     	; 0x196 <main+0xc8>
			uint8_t idx = 0U;

			if      (f & (1U<<0)) { req = MODE_MARQUEE;  idx = 0U; }
 17a:	90 e0       	ldi	r25, 0x00	; 0
 17c:	81 e0       	ldi	r24, 0x01	; 1
 17e:	0b c0       	rjmp	.+22     	; 0x196 <main+0xc8>
			else if (f & (1U<<1)) { req = MODE_PINGPONG; idx = 1U; }
 180:	91 e0       	ldi	r25, 0x01	; 1
 182:	82 e0       	ldi	r24, 0x02	; 2
 184:	08 c0       	rjmp	.+16     	; 0x196 <main+0xc8>
			else if (f & (1U<<2)) { req = MODE_ALTERNATE;idx = 2U; }
 186:	92 e0       	ldi	r25, 0x02	; 2
 188:	83 e0       	ldi	r24, 0x03	; 3
 18a:	05 c0       	rjmp	.+10     	; 0x196 <main+0xc8>
			else if (f & (1U<<3)) { req = MODE_FILL;     idx = 3U; }
 18c:	93 e0       	ldi	r25, 0x03	; 3
 18e:	84 e0       	ldi	r24, 0x04	; 4
 190:	02 c0       	rjmp	.+4      	; 0x196 <main+0xc8>
			else if (f & (1U<<4)) { req = MODE_RANDOM;   idx = 4U; }
 192:	94 e0       	ldi	r25, 0x04	; 4
 194:	85 e0       	ldi	r24, 0x05	; 5
 196:	e9 e6       	ldi	r30, 0x69	; 105
 198:	f8 e1       	ldi	r31, 0x18	; 24
 19a:	31 97       	sbiw	r30, 0x01	; 1
 19c:	f1 f7       	brne	.-4      	; 0x19a <main+0xcc>
 19e:	00 c0       	rjmp	.+0      	; 0x1a0 <main+0xd2>
 1a0:	00 00       	nop

			_delay_ms(25);
			if (idx < 2U) {
 1a2:	92 30       	cpi	r25, 0x02	; 2
 1a4:	d0 f4       	brcc	.+52     	; 0x1da <main+0x10c>
				PCIFR |= (1U << PCIF1);
 1a6:	2b b3       	in	r18, 0x1b	; 27
 1a8:	22 60       	ori	r18, 0x02	; 2
 1aa:	2b bb       	out	0x1b, r18	; 27
static inline uint8_t abort_requested(void) {
	return (g_btn_flags != 0U);
}

static inline void re_enable_pcint_for_index(uint8_t idx) {
	if (idx < 2U) { // PCINT1 (PC0, PC1)
 1ac:	92 30       	cpi	r25, 0x02	; 2
 1ae:	68 f4       	brcc	.+26     	; 0x1ca <main+0xfc>
		const uint8_t pcint_bit = (uint8_t)(PCINT8 + idx);  // PC0..PC1 -> PCINT8..PCINT9
		PCMSK1 |= (uint8_t)(1U << pcint_bit);
 1b0:	ec e6       	ldi	r30, 0x6C	; 108
 1b2:	f0 e0       	ldi	r31, 0x00	; 0
 1b4:	40 81       	ld	r20, Z
 1b6:	21 e0       	ldi	r18, 0x01	; 1
 1b8:	30 e0       	ldi	r19, 0x00	; 0
 1ba:	02 c0       	rjmp	.+4      	; 0x1c0 <main+0xf2>
 1bc:	22 0f       	add	r18, r18
 1be:	33 1f       	adc	r19, r19
 1c0:	9a 95       	dec	r25
 1c2:	e2 f7       	brpl	.-8      	; 0x1bc <main+0xee>
 1c4:	24 2b       	or	r18, r20
 1c6:	20 83       	st	Z, r18
 1c8:	35 c0       	rjmp	.+106    	; 0x234 <main+0x166>
		} else if (idx == 2U) { // PCINT0 (PB5)
 1ca:	92 30       	cpi	r25, 0x02	; 2
 1cc:	99 f5       	brne	.+102    	; 0x234 <main+0x166>
		PCMSK0 |= (1U << PCINT5);
 1ce:	eb e6       	ldi	r30, 0x6B	; 107
 1d0:	f0 e0       	ldi	r31, 0x00	; 0
 1d2:	90 81       	ld	r25, Z
 1d4:	90 62       	ori	r25, 0x20	; 32
 1d6:	90 83       	st	Z, r25
 1d8:	2d c0       	rjmp	.+90     	; 0x234 <main+0x166>

			_delay_ms(25);
			if (idx < 2U) {
				PCIFR |= (1U << PCIF1);
				re_enable_pcint_for_index(idx);
				} else if (idx == 2U) {
 1da:	92 30       	cpi	r25, 0x02	; 2
 1dc:	d1 f4       	brne	.+52     	; 0x212 <main+0x144>
				PCIFR |= (1U << PCIF0);
 1de:	2b b3       	in	r18, 0x1b	; 27
 1e0:	21 60       	ori	r18, 0x01	; 1
 1e2:	2b bb       	out	0x1b, r18	; 27
static inline uint8_t abort_requested(void) {
	return (g_btn_flags != 0U);
}

static inline void re_enable_pcint_for_index(uint8_t idx) {
	if (idx < 2U) { // PCINT1 (PC0, PC1)
 1e4:	92 30       	cpi	r25, 0x02	; 2
 1e6:	68 f4       	brcc	.+26     	; 0x202 <main+0x134>
		const uint8_t pcint_bit = (uint8_t)(PCINT8 + idx);  // PC0..PC1 -> PCINT8..PCINT9
		PCMSK1 |= (uint8_t)(1U << pcint_bit);
 1e8:	ec e6       	ldi	r30, 0x6C	; 108
 1ea:	f0 e0       	ldi	r31, 0x00	; 0
 1ec:	40 81       	ld	r20, Z
 1ee:	21 e0       	ldi	r18, 0x01	; 1
 1f0:	30 e0       	ldi	r19, 0x00	; 0
 1f2:	02 c0       	rjmp	.+4      	; 0x1f8 <main+0x12a>
 1f4:	22 0f       	add	r18, r18
 1f6:	33 1f       	adc	r19, r19
 1f8:	9a 95       	dec	r25
 1fa:	e2 f7       	brpl	.-8      	; 0x1f4 <main+0x126>
 1fc:	24 2b       	or	r18, r20
 1fe:	20 83       	st	Z, r18
 200:	19 c0       	rjmp	.+50     	; 0x234 <main+0x166>
		} else if (idx == 2U) { // PCINT0 (PB5)
 202:	92 30       	cpi	r25, 0x02	; 2
 204:	b9 f4       	brne	.+46     	; 0x234 <main+0x166>
		PCMSK0 |= (1U << PCINT5);
 206:	eb e6       	ldi	r30, 0x6B	; 107
 208:	f0 e0       	ldi	r31, 0x00	; 0
 20a:	90 81       	ld	r25, Z
 20c:	90 62       	ori	r25, 0x20	; 32
 20e:	90 83       	st	Z, r25
 210:	11 c0       	rjmp	.+34     	; 0x234 <main+0x166>
				PCIFR |= (1U << PCIF1);
				re_enable_pcint_for_index(idx);
				} else if (idx == 2U) {
				PCIFR |= (1U << PCIF0);
				re_enable_pcint_for_index(idx);
				} else if (idx == 3U) {
 212:	93 30       	cpi	r25, 0x03	; 3
 214:	39 f4       	brne	.+14     	; 0x224 <main+0x156>
				EIFR |= (1U << INTF0);
 216:	9c b3       	in	r25, 0x1c	; 28
 218:	91 60       	ori	r25, 0x01	; 1
 21a:	9c bb       	out	0x1c, r25	; 28
				EIMSK |= (1U << INT0);
 21c:	9d b3       	in	r25, 0x1d	; 29
 21e:	91 60       	ori	r25, 0x01	; 1
 220:	9d bb       	out	0x1d, r25	; 29
 222:	08 c0       	rjmp	.+16     	; 0x234 <main+0x166>
				} else if (idx == 4U) {
 224:	94 30       	cpi	r25, 0x04	; 4
 226:	31 f4       	brne	.+12     	; 0x234 <main+0x166>
				EIFR |= (1U << INTF1);
 228:	9c b3       	in	r25, 0x1c	; 28
 22a:	92 60       	ori	r25, 0x02	; 2
 22c:	9c bb       	out	0x1c, r25	; 28
				EIMSK |= (1U << INT1);
 22e:	9d b3       	in	r25, 0x1d	; 29
 230:	92 60       	ori	r25, 0x02	; 2
 232:	9d bb       	out	0x1d, r25	; 29
			}

			g_mode = req;
 234:	80 93 00 01 	sts	0x0100, r24	; 0x800100 <__DATA_REGION_ORIGIN__>

			uint8_t aborted = run_pattern(req);
 238:	0e 94 7f 02 	call	0x4fe	; 0x4fe <run_pattern>

			if (!aborted) {
 23c:	81 11       	cpse	r24, r1
 23e:	87 cf       	rjmp	.-242    	; 0x14e <main+0x80>
static volatile uint8_t g_prev_pinb = 0xFFU;
static volatile mode_t g_mode = MODE_BIN;

// Helper: escribe LEDs en PORTB preservando PB5 en '1' (pull-up activado)
static inline void LED_WRITE(uint8_t v) {
	PORTB = (uint8_t)((v & (uint8_t)~BTN_MASK_PB) | BTN_MASK_PB);
 240:	80 e2       	ldi	r24, 0x20	; 32
 242:	85 b9       	out	0x05, r24	; 5
			uint8_t aborted = run_pattern(req);

			if (!aborted) {
				LED_WRITE(0x00U);
				count = 0U;
				g_mode = MODE_BIN;
 244:	10 92 00 01 	sts	0x0100, r1	; 0x800100 <__DATA_REGION_ORIGIN__>

			uint8_t aborted = run_pattern(req);

			if (!aborted) {
				LED_WRITE(0x00U);
				count = 0U;
 248:	c0 e0       	ldi	r28, 0x00	; 0
				g_mode = MODE_BIN;
			}
			continue;
 24a:	81 cf       	rjmp	.-254    	; 0x14e <main+0x80>
		}

		g_mode = MODE_BIN;
 24c:	10 92 00 01 	sts	0x0100, r1	; 0x800100 <__DATA_REGION_ORIGIN__>
static volatile uint8_t g_prev_pinb = 0xFFU;
static volatile mode_t g_mode = MODE_BIN;

// Helper: escribe LEDs en PORTB preservando PB5 en '1' (pull-up activado)
static inline void LED_WRITE(uint8_t v) {
	PORTB = (uint8_t)((v & (uint8_t)~BTN_MASK_PB) | BTN_MASK_PB);
 250:	8c 2f       	mov	r24, r28
 252:	80 62       	ori	r24, 0x20	; 32
 254:	85 b9       	out	0x05, r24	; 5
 256:	ff e9       	ldi	r31, 0x9F	; 159
 258:	26 e8       	ldi	r18, 0x86	; 134
 25a:	81 e0       	ldi	r24, 0x01	; 1
 25c:	f1 50       	subi	r31, 0x01	; 1
 25e:	20 40       	sbci	r18, 0x00	; 0
 260:	80 40       	sbci	r24, 0x00	; 0
 262:	e1 f7       	brne	.-8      	; 0x25c <main+0x18e>
 264:	00 c0       	rjmp	.+0      	; 0x266 <main+0x198>
 266:	00 00       	nop
		}

		g_mode = MODE_BIN;
		LED_WRITE(count);
		_delay_ms(500);
		count++;
 268:	cf 5f       	subi	r28, 0xFF	; 255
 26a:	71 cf       	rjmp	.-286    	; 0x14e <main+0x80>

Disassembly of section .text.__dummy_fini:

000005d4 <_fini>:
 5d4:	08 95       	ret

Disassembly of section .text.__dummy_funcs_on_exit:

000005d6 <__funcs_on_exit>:
 5d6:	08 95       	ret

Disassembly of section .text.__dummy_simulator_exit:

000005d8 <__simulator_exit>:
 5d8:	08 95       	ret

Disassembly of section .text.exit:

000005b6 <exit>:
 5b6:	ec 01       	movw	r28, r24
 5b8:	0e 94 eb 02 	call	0x5d6	; 0x5d6 <__funcs_on_exit>
 5bc:	0e 94 ea 02 	call	0x5d4	; 0x5d4 <_fini>
 5c0:	ce 01       	movw	r24, r28
 5c2:	0e 94 ec 02 	call	0x5d8	; 0x5d8 <__simulator_exit>
 5c6:	ce 01       	movw	r24, r28
 5c8:	0e 94 e8 02 	call	0x5d0	; 0x5d0 <_Exit>

Disassembly of section .text._Exit:

000005d0 <_Exit>:
 5d0:	0e 94 65 00 	call	0xca	; 0xca <_exit>
