
LCD_Manejo.elf:     file format elf32-avr

Sections:
Idx Name          Size      VMA       LMA       File off  Algn
  0 .text         000000b0  00000000  00000000  000000d4  2**1
                  CONTENTS, ALLOC, LOAD, READONLY, CODE
  1 .data         00000000  00800060  000000b0  00000248  2**0
                  ALLOC
  2 .comment      0000002f  00000000  00000000  000008d5  2**0
                  CONTENTS, READONLY
  3 .stack.descriptors.hdr 0000000e  00000000  00000000  00000904  2**0
                  CONTENTS, READONLY
  4 .debug_aranges 000000f0  00000000  00000000  00000912  2**0
                  CONTENTS, READONLY, DEBUGGING
  5 .debug_info   00002aad  00000000  00000000  00000a02  2**0
                  CONTENTS, READONLY, DEBUGGING
  6 .debug_abbrev 000007c5  00000000  00000000  000034af  2**0
                  CONTENTS, READONLY, DEBUGGING
  7 .debug_line   00000b09  00000000  00000000  00003c74  2**0
                  CONTENTS, READONLY, DEBUGGING
  8 .debug_frame  000001bc  00000000  00000000  00004780  2**2
                  CONTENTS, READONLY, DEBUGGING
  9 .debug_str    00000253  00000000  00000000  0000493c  2**0
                  CONTENTS, READONLY, DEBUGGING
 10 .debug_loc    0000198c  00000000  00000000  00004b8f  2**0
                  CONTENTS, READONLY, DEBUGGING
 11 .debug_ranges 000000d0  00000000  00000000  0000651b  2**0
                  CONTENTS, READONLY, DEBUGGING
 12 .text         00000004  000007e8  000007e8  000008bc  2**1
                  CONTENTS, ALLOC, LOAD, READONLY, CODE
 13 .note.gnu.avr.deviceinfo 0000003c  00000000  00000000  000065ec  2**2
                  CONTENTS, READONLY, DEBUGGING
 14 .text.ENVIA_CMD 00000066  00000694  00000694  00000768  2**1
                  CONTENTS, ALLOC, LOAD, READONLY, CODE
 15 .text.LCD_INICIALIZA 00000026  0000078c  0000078c  00000860  2**1
                  CONTENTS, ALLOC, LOAD, READONLY, CODE
 16 .text.ENVIA_DATO 00000066  000006fa  000006fa  000007ce  2**1
                  CONTENTS, ALLOC, LOAD, READONLY, CODE
 17 .text.ENVIA_CADENA 0000002c  00000760  00000760  00000834  2**1
                  CONTENTS, ALLOC, LOAD, READONLY, CODE
 18 .text.LIMPIA_LCD 00000008  000007c8  000007c8  0000089c  2**1
                  CONTENTS, ALLOC, LOAD, READONLY, CODE
 19 .text.POS_LINEA1 00000008  000007d0  000007d0  000008a4  2**1
                  CONTENTS, ALLOC, LOAD, READONLY, CODE
 20 .text.POS_LINEA2 00000008  000007d8  000007d8  000008ac  2**1
                  CONTENTS, ALLOC, LOAD, READONLY, CODE
 21 .text.POS_LINEA3 00000008  000007e0  000007e0  000008b4  2**1
                  CONTENTS, ALLOC, LOAD, READONLY, CODE
 22 .text.CAR_ESP0 000000a4  00000174  00000174  00000248  2**1
                  CONTENTS, ALLOC, LOAD, READONLY, CODE
 23 .text.CAR_ESP1 000000a4  00000218  00000218  000002ec  2**1
                  CONTENTS, ALLOC, LOAD, READONLY, CODE
 24 .text.CAR_ESP2 000000a4  000002bc  000002bc  00000390  2**1
                  CONTENTS, ALLOC, LOAD, READONLY, CODE
 25 .text.CAR_ESP3 000000a4  00000360  00000360  00000434  2**1
                  CONTENTS, ALLOC, LOAD, READONLY, CODE
 26 .text.CAR_ESP4 000000a4  00000404  00000404  000004d8  2**1
                  CONTENTS, ALLOC, LOAD, READONLY, CODE
 27 .text.CAR_ESP5 000000a4  000004a8  000004a8  0000057c  2**1
                  CONTENTS, ALLOC, LOAD, READONLY, CODE
 28 .text.CAR_ESP6 000000a4  0000054c  0000054c  00000620  2**1
                  CONTENTS, ALLOC, LOAD, READONLY, CODE
 29 .text.CAR_ESP7 000000a4  000005f0  000005f0  000006c4  2**1
                  CONTENTS, ALLOC, LOAD, READONLY, CODE
 30 .text.main    000000c4  000000b0  000000b0  00000184  2**1
                  CONTENTS, ALLOC, LOAD, READONLY, CODE
 31 .data.mensaje 0000000b  00800060  000007f6  000008ca  2**0
                  CONTENTS, ALLOC, LOAD, DATA
 32 .text.__dummy_fini 00000002  000007f0  000007f0  000008c4  2**1
                  CONTENTS, ALLOC, LOAD, READONLY, CODE
 33 .text.__dummy_funcs_on_exit 00000002  000007f2  000007f2  000008c6  2**1
                  CONTENTS, ALLOC, LOAD, READONLY, CODE
 34 .text.__dummy_simulator_exit 00000002  000007f4  000007f4  000008c8  2**1
                  CONTENTS, ALLOC, LOAD, READONLY, CODE
 35 .text.exit    00000016  000007b2  000007b2  00000886  2**1
                  CONTENTS, ALLOC, LOAD, READONLY, CODE
 36 .text._Exit   00000004  000007ec  000007ec  000008c0  2**1
                  CONTENTS, ALLOC, LOAD, READONLY, CODE

Disassembly of section .text:

00000000 <__vectors>:
   0:	0c 94 2e 00 	jmp	0x5c	; 0x5c <__ctors_end>
   4:	0c 94 f4 03 	jmp	0x7e8	; 0x7e8 <__bad_interrupt>
   8:	0c 94 f4 03 	jmp	0x7e8	; 0x7e8 <__bad_interrupt>
   c:	0c 94 f4 03 	jmp	0x7e8	; 0x7e8 <__bad_interrupt>
  10:	0c 94 f4 03 	jmp	0x7e8	; 0x7e8 <__bad_interrupt>
  14:	0c 94 f4 03 	jmp	0x7e8	; 0x7e8 <__bad_interrupt>
  18:	0c 94 f4 03 	jmp	0x7e8	; 0x7e8 <__bad_interrupt>
  1c:	0c 94 f4 03 	jmp	0x7e8	; 0x7e8 <__bad_interrupt>
  20:	0c 94 f4 03 	jmp	0x7e8	; 0x7e8 <__bad_interrupt>
  24:	0c 94 f4 03 	jmp	0x7e8	; 0x7e8 <__bad_interrupt>
  28:	0c 94 f4 03 	jmp	0x7e8	; 0x7e8 <__bad_interrupt>
  2c:	0c 94 f4 03 	jmp	0x7e8	; 0x7e8 <__bad_interrupt>
  30:	0c 94 f4 03 	jmp	0x7e8	; 0x7e8 <__bad_interrupt>
  34:	0c 94 f4 03 	jmp	0x7e8	; 0x7e8 <__bad_interrupt>
  38:	0c 94 f4 03 	jmp	0x7e8	; 0x7e8 <__bad_interrupt>
  3c:	0c 94 f4 03 	jmp	0x7e8	; 0x7e8 <__bad_interrupt>
  40:	0c 94 f4 03 	jmp	0x7e8	; 0x7e8 <__bad_interrupt>
  44:	0c 94 f4 03 	jmp	0x7e8	; 0x7e8 <__bad_interrupt>
  48:	0c 94 f4 03 	jmp	0x7e8	; 0x7e8 <__bad_interrupt>
  4c:	0c 94 f4 03 	jmp	0x7e8	; 0x7e8 <__bad_interrupt>
  50:	0c 94 f4 03 	jmp	0x7e8	; 0x7e8 <__bad_interrupt>

00000054 <.dinit>:
  54:	00 60       	ori	r16, 0x00	; 0
  56:	00 6b       	ori	r16, 0xB0	; 176
  58:	00 07       	cpc	r16, r16
  5a:	f6 00       	.word	0x00f6	; ????

0000005c <__ctors_end>:
  5c:	11 24       	eor	r1, r1
  5e:	1f be       	out	0x3f, r1	; 63
  60:	cf e5       	ldi	r28, 0x5F	; 95
  62:	d4 e0       	ldi	r29, 0x04	; 4
  64:	de bf       	out	0x3e, r29	; 62
  66:	cd bf       	out	0x3d, r28	; 61

00000068 <__do_copy_data>:
  68:	e4 e5       	ldi	r30, 0x54	; 84
  6a:	f0 e0       	ldi	r31, 0x00	; 0
  6c:	40 e0       	ldi	r20, 0x00	; 0
  6e:	17 c0       	rjmp	.+46     	; 0x9e <__do_clear_bss+0x8>
  70:	b5 91       	lpm	r27, Z+
  72:	a5 91       	lpm	r26, Z+
  74:	35 91       	lpm	r19, Z+
  76:	25 91       	lpm	r18, Z+
  78:	05 91       	lpm	r16, Z+
  7a:	07 fd       	sbrc	r16, 7
  7c:	0c c0       	rjmp	.+24     	; 0x96 <__do_clear_bss>
  7e:	95 91       	lpm	r25, Z+
  80:	85 91       	lpm	r24, Z+
  82:	ef 01       	movw	r28, r30
  84:	f9 2f       	mov	r31, r25
  86:	e8 2f       	mov	r30, r24
  88:	05 90       	lpm	r0, Z+
  8a:	0d 92       	st	X+, r0
  8c:	a2 17       	cp	r26, r18
  8e:	b3 07       	cpc	r27, r19
  90:	d9 f7       	brne	.-10     	; 0x88 <__do_copy_data+0x20>
  92:	fe 01       	movw	r30, r28
  94:	04 c0       	rjmp	.+8      	; 0x9e <__do_clear_bss+0x8>

00000096 <__do_clear_bss>:
  96:	1d 92       	st	X+, r1
  98:	a2 17       	cp	r26, r18
  9a:	b3 07       	cpc	r27, r19
  9c:	e1 f7       	brne	.-8      	; 0x96 <__do_clear_bss>
  9e:	eb 35       	cpi	r30, 0x5B	; 91
  a0:	f4 07       	cpc	r31, r20
  a2:	31 f7       	brne	.-52     	; 0x70 <__do_copy_data+0x8>
  a4:	0e 94 58 00 	call	0xb0	; 0xb0 <_etext>
  a8:	0c 94 d9 03 	jmp	0x7b2	; 0x7b2 <exit>

000000ac <_exit>:
  ac:	f8 94       	cli

000000ae <__stop_program>:
  ae:	ff cf       	rjmp	.-2      	; 0xae <__stop_program>

Disassembly of section .text:

000007e8 <__bad_interrupt>:
 7e8:	0c 94 00 00 	jmp	0	; 0x0 <__TEXT_REGION_ORIGIN__>

Disassembly of section .text.ENVIA_CMD:

00000694 <ENVIA_CMD>:
	ENVIA_CMD(0x18);
}

void REGRESO_CASA(void)
{
	ENVIA_CMD(0x02);
 694:	98 2f       	mov	r25, r24
 696:	90 7f       	andi	r25, 0xF0	; 240
 698:	95 bb       	out	0x15, r25	; 21
 69a:	95 b3       	in	r25, 0x15	; 21
 69c:	9b 7f       	andi	r25, 0xFB	; 251
 69e:	95 bb       	out	0x15, r25	; 21
 6a0:	95 b3       	in	r25, 0x15	; 21
 6a2:	98 60       	ori	r25, 0x08	; 8
 6a4:	95 bb       	out	0x15, r25	; 21
 6a6:	e9 ef       	ldi	r30, 0xF9	; 249
 6a8:	f0 e0       	ldi	r31, 0x00	; 0
 6aa:	31 97       	sbiw	r30, 0x01	; 1
 6ac:	f1 f7       	brne	.-4      	; 0x6aa <ENVIA_CMD+0x16>
 6ae:	00 c0       	rjmp	.+0      	; 0x6b0 <ENVIA_CMD+0x1c>
 6b0:	00 00       	nop
 6b2:	95 b3       	in	r25, 0x15	; 21
 6b4:	97 7f       	andi	r25, 0xF7	; 247
 6b6:	95 bb       	out	0x15, r25	; 21
 6b8:	e3 ec       	ldi	r30, 0xC3	; 195
 6ba:	f9 e0       	ldi	r31, 0x09	; 9
 6bc:	31 97       	sbiw	r30, 0x01	; 1
 6be:	f1 f7       	brne	.-4      	; 0x6bc <ENVIA_CMD+0x28>
 6c0:	00 c0       	rjmp	.+0      	; 0x6c2 <ENVIA_CMD+0x2e>
 6c2:	00 00       	nop
 6c4:	f0 e1       	ldi	r31, 0x10	; 16
 6c6:	8f 9f       	mul	r24, r31
 6c8:	c0 01       	movw	r24, r0
 6ca:	11 24       	eor	r1, r1
 6cc:	85 bb       	out	0x15, r24	; 21
 6ce:	85 b3       	in	r24, 0x15	; 21
 6d0:	8b 7f       	andi	r24, 0xFB	; 251
 6d2:	85 bb       	out	0x15, r24	; 21
 6d4:	85 b3       	in	r24, 0x15	; 21
 6d6:	88 60       	ori	r24, 0x08	; 8
 6d8:	85 bb       	out	0x15, r24	; 21
 6da:	89 ef       	ldi	r24, 0xF9	; 249
 6dc:	90 e0       	ldi	r25, 0x00	; 0
 6de:	01 97       	sbiw	r24, 0x01	; 1
 6e0:	f1 f7       	brne	.-4      	; 0x6de <ENVIA_CMD+0x4a>
 6e2:	00 c0       	rjmp	.+0      	; 0x6e4 <ENVIA_CMD+0x50>
 6e4:	00 00       	nop
 6e6:	85 b3       	in	r24, 0x15	; 21
 6e8:	87 7f       	andi	r24, 0xF7	; 247
 6ea:	85 bb       	out	0x15, r24	; 21
 6ec:	e3 ec       	ldi	r30, 0xC3	; 195
 6ee:	f9 e0       	ldi	r31, 0x09	; 9
 6f0:	31 97       	sbiw	r30, 0x01	; 1
 6f2:	f1 f7       	brne	.-4      	; 0x6f0 <ENVIA_CMD+0x5c>
 6f4:	00 c0       	rjmp	.+0      	; 0x6f6 <ENVIA_CMD+0x62>
 6f6:	00 00       	nop
 6f8:	08 95       	ret

Disassembly of section .text.LCD_INICIALIZA:

0000078c <LCD_INICIALIZA>:
 78c:	82 e0       	ldi	r24, 0x02	; 2
 78e:	0e 94 4a 03 	call	0x694	; 0x694 <ENVIA_CMD>
 792:	88 e2       	ldi	r24, 0x28	; 40
 794:	0e 94 4a 03 	call	0x694	; 0x694 <ENVIA_CMD>
 798:	8e e0       	ldi	r24, 0x0E	; 14
 79a:	0e 94 4a 03 	call	0x694	; 0x694 <ENVIA_CMD>
 79e:	86 e0       	ldi	r24, 0x06	; 6
 7a0:	0e 94 4a 03 	call	0x694	; 0x694 <ENVIA_CMD>
 7a4:	81 e0       	ldi	r24, 0x01	; 1
 7a6:	0e 94 4a 03 	call	0x694	; 0x694 <ENVIA_CMD>
 7aa:	80 e8       	ldi	r24, 0x80	; 128
 7ac:	0e 94 4a 03 	call	0x694	; 0x694 <ENVIA_CMD>
 7b0:	08 95       	ret

Disassembly of section .text.ENVIA_DATO:

000006fa <ENVIA_DATO>:
 6fa:	98 2f       	mov	r25, r24
 6fc:	90 7f       	andi	r25, 0xF0	; 240
 6fe:	95 bb       	out	0x15, r25	; 21
 700:	95 b3       	in	r25, 0x15	; 21
 702:	9c 60       	ori	r25, 0x0C	; 12
 704:	95 bb       	out	0x15, r25	; 21
 706:	e9 ef       	ldi	r30, 0xF9	; 249
 708:	f0 e0       	ldi	r31, 0x00	; 0
 70a:	31 97       	sbiw	r30, 0x01	; 1
 70c:	f1 f7       	brne	.-4      	; 0x70a <ENVIA_DATO+0x10>
 70e:	00 c0       	rjmp	.+0      	; 0x710 <ENVIA_DATO+0x16>
 710:	00 00       	nop
 712:	95 b3       	in	r25, 0x15	; 21
 714:	97 7f       	andi	r25, 0xF7	; 247
 716:	95 bb       	out	0x15, r25	; 21
 718:	95 b3       	in	r25, 0x15	; 21
 71a:	9b 7f       	andi	r25, 0xFB	; 251
 71c:	95 bb       	out	0x15, r25	; 21
 71e:	e3 ec       	ldi	r30, 0xC3	; 195
 720:	f9 e0       	ldi	r31, 0x09	; 9
 722:	31 97       	sbiw	r30, 0x01	; 1
 724:	f1 f7       	brne	.-4      	; 0x722 <ENVIA_DATO+0x28>
 726:	00 c0       	rjmp	.+0      	; 0x728 <ENVIA_DATO+0x2e>
 728:	00 00       	nop
 72a:	f0 e1       	ldi	r31, 0x10	; 16
 72c:	8f 9f       	mul	r24, r31
 72e:	c0 01       	movw	r24, r0
 730:	11 24       	eor	r1, r1
 732:	85 bb       	out	0x15, r24	; 21
 734:	85 b3       	in	r24, 0x15	; 21
 736:	8c 60       	ori	r24, 0x0C	; 12
 738:	85 bb       	out	0x15, r24	; 21
 73a:	89 ef       	ldi	r24, 0xF9	; 249
 73c:	90 e0       	ldi	r25, 0x00	; 0
 73e:	01 97       	sbiw	r24, 0x01	; 1
 740:	f1 f7       	brne	.-4      	; 0x73e <ENVIA_DATO+0x44>
 742:	00 c0       	rjmp	.+0      	; 0x744 <ENVIA_DATO+0x4a>
 744:	00 00       	nop
 746:	85 b3       	in	r24, 0x15	; 21
 748:	87 7f       	andi	r24, 0xF7	; 247
 74a:	85 bb       	out	0x15, r24	; 21
 74c:	85 b3       	in	r24, 0x15	; 21
 74e:	8b 7f       	andi	r24, 0xFB	; 251
 750:	85 bb       	out	0x15, r24	; 21
 752:	e3 ec       	ldi	r30, 0xC3	; 195
 754:	f9 e0       	ldi	r31, 0x09	; 9
 756:	31 97       	sbiw	r30, 0x01	; 1
 758:	f1 f7       	brne	.-4      	; 0x756 <ENVIA_DATO+0x5c>
 75a:	00 c0       	rjmp	.+0      	; 0x75c <ENVIA_DATO+0x62>
 75c:	00 00       	nop
 75e:	08 95       	ret

Disassembly of section .text.ENVIA_CADENA:

00000760 <ENVIA_CADENA>:
 760:	0f 93       	push	r16
 762:	1f 93       	push	r17
 764:	cf 93       	push	r28
 766:	df 93       	push	r29
 768:	8c 01       	movw	r16, r24
 76a:	c0 e0       	ldi	r28, 0x00	; 0
 76c:	d0 e0       	ldi	r29, 0x00	; 0
 76e:	03 c0       	rjmp	.+6      	; 0x776 <ENVIA_CADENA+0x16>
 770:	0e 94 7d 03 	call	0x6fa	; 0x6fa <ENVIA_DATO>
 774:	21 96       	adiw	r28, 0x01	; 1
 776:	f8 01       	movw	r30, r16
 778:	ec 0f       	add	r30, r28
 77a:	fd 1f       	adc	r31, r29
 77c:	80 81       	ld	r24, Z
 77e:	81 11       	cpse	r24, r1
 780:	f7 cf       	rjmp	.-18     	; 0x770 <ENVIA_CADENA+0x10>
 782:	df 91       	pop	r29
 784:	cf 91       	pop	r28
 786:	1f 91       	pop	r17
 788:	0f 91       	pop	r16
 78a:	08 95       	ret

Disassembly of section .text.LIMPIA_LCD:

000007c8 <LIMPIA_LCD>:
 7c8:	81 e0       	ldi	r24, 0x01	; 1
 7ca:	0e 94 4a 03 	call	0x694	; 0x694 <ENVIA_CMD>
 7ce:	08 95       	ret

Disassembly of section .text.POS_LINEA1:

000007d0 <POS_LINEA1>:

void POS_LINEA1(char posicion)
{
	char linea1 = 0x80;
	posicion = posicion | linea1;
	ENVIA_CMD(posicion);
 7d0:	80 68       	ori	r24, 0x80	; 128
 7d2:	0e 94 4a 03 	call	0x694	; 0x694 <ENVIA_CMD>
 7d6:	08 95       	ret

Disassembly of section .text.POS_LINEA2:

000007d8 <POS_LINEA2>:

void POS_LINEA2(char posicion)
{
	char linea2 = 0xC0;
	posicion = posicion | linea2;
	ENVIA_CMD(posicion);
 7d8:	80 6c       	ori	r24, 0xC0	; 192
 7da:	0e 94 4a 03 	call	0x694	; 0x694 <ENVIA_CMD>
 7de:	08 95       	ret

Disassembly of section .text.POS_LINEA3:

000007e0 <POS_LINEA3>:

void POS_LINEA3(char posicion)
{
	char linea3 = 0x94;
	posicion = posicion | linea3;
	ENVIA_CMD(posicion);
 7e0:	84 69       	ori	r24, 0x94	; 148
 7e2:	0e 94 4a 03 	call	0x694	; 0x694 <ENVIA_CMD>
 7e6:	08 95       	ret

Disassembly of section .text.CAR_ESP0:

00000174 <CAR_ESP0>:
	ENVIA_CMD(0x18);
}

void REGRESO_CASA(void)
{
	ENVIA_CMD(0x02);
 174:	80 e4       	ldi	r24, 0x40	; 64
 176:	0e 94 4a 03 	call	0x694	; 0x694 <ENVIA_CMD>
 17a:	89 ef       	ldi	r24, 0xF9	; 249
 17c:	90 e0       	ldi	r25, 0x00	; 0
 17e:	01 97       	sbiw	r24, 0x01	; 1
 180:	f1 f7       	brne	.-4      	; 0x17e <CAR_ESP0+0xa>
 182:	00 c0       	rjmp	.+0      	; 0x184 <CAR_ESP0+0x10>
 184:	00 00       	nop
 186:	8f e1       	ldi	r24, 0x1F	; 31
 188:	0e 94 7d 03 	call	0x6fa	; 0x6fa <ENVIA_DATO>
 18c:	89 ef       	ldi	r24, 0xF9	; 249
 18e:	90 e0       	ldi	r25, 0x00	; 0
 190:	01 97       	sbiw	r24, 0x01	; 1
 192:	f1 f7       	brne	.-4      	; 0x190 <CAR_ESP0+0x1c>
 194:	00 c0       	rjmp	.+0      	; 0x196 <CAR_ESP0+0x22>
 196:	00 00       	nop
 198:	85 e1       	ldi	r24, 0x15	; 21
 19a:	0e 94 7d 03 	call	0x6fa	; 0x6fa <ENVIA_DATO>
 19e:	89 ef       	ldi	r24, 0xF9	; 249
 1a0:	90 e0       	ldi	r25, 0x00	; 0
 1a2:	01 97       	sbiw	r24, 0x01	; 1
 1a4:	f1 f7       	brne	.-4      	; 0x1a2 <CAR_ESP0+0x2e>
 1a6:	00 c0       	rjmp	.+0      	; 0x1a8 <CAR_ESP0+0x34>
 1a8:	00 00       	nop
 1aa:	85 e1       	ldi	r24, 0x15	; 21
 1ac:	0e 94 7d 03 	call	0x6fa	; 0x6fa <ENVIA_DATO>
 1b0:	89 ef       	ldi	r24, 0xF9	; 249
 1b2:	90 e0       	ldi	r25, 0x00	; 0
 1b4:	01 97       	sbiw	r24, 0x01	; 1
 1b6:	f1 f7       	brne	.-4      	; 0x1b4 <CAR_ESP0+0x40>
 1b8:	00 c0       	rjmp	.+0      	; 0x1ba <CAR_ESP0+0x46>
 1ba:	00 00       	nop
 1bc:	8f e1       	ldi	r24, 0x1F	; 31
 1be:	0e 94 7d 03 	call	0x6fa	; 0x6fa <ENVIA_DATO>
 1c2:	89 ef       	ldi	r24, 0xF9	; 249
 1c4:	90 e0       	ldi	r25, 0x00	; 0
 1c6:	01 97       	sbiw	r24, 0x01	; 1
 1c8:	f1 f7       	brne	.-4      	; 0x1c6 <CAR_ESP0+0x52>
 1ca:	00 c0       	rjmp	.+0      	; 0x1cc <CAR_ESP0+0x58>
 1cc:	00 00       	nop
 1ce:	8a e0       	ldi	r24, 0x0A	; 10
 1d0:	0e 94 7d 03 	call	0x6fa	; 0x6fa <ENVIA_DATO>
 1d4:	89 ef       	ldi	r24, 0xF9	; 249
 1d6:	90 e0       	ldi	r25, 0x00	; 0
 1d8:	01 97       	sbiw	r24, 0x01	; 1
 1da:	f1 f7       	brne	.-4      	; 0x1d8 <CAR_ESP0+0x64>
 1dc:	00 c0       	rjmp	.+0      	; 0x1de <CAR_ESP0+0x6a>
 1de:	00 00       	nop
 1e0:	85 e1       	ldi	r24, 0x15	; 21
 1e2:	0e 94 7d 03 	call	0x6fa	; 0x6fa <ENVIA_DATO>
 1e6:	89 ef       	ldi	r24, 0xF9	; 249
 1e8:	90 e0       	ldi	r25, 0x00	; 0
 1ea:	01 97       	sbiw	r24, 0x01	; 1
 1ec:	f1 f7       	brne	.-4      	; 0x1ea <CAR_ESP0+0x76>
 1ee:	00 c0       	rjmp	.+0      	; 0x1f0 <CAR_ESP0+0x7c>
 1f0:	00 00       	nop
 1f2:	8f e1       	ldi	r24, 0x1F	; 31
 1f4:	0e 94 7d 03 	call	0x6fa	; 0x6fa <ENVIA_DATO>
 1f8:	89 ef       	ldi	r24, 0xF9	; 249
 1fa:	90 e0       	ldi	r25, 0x00	; 0
 1fc:	01 97       	sbiw	r24, 0x01	; 1
 1fe:	f1 f7       	brne	.-4      	; 0x1fc <CAR_ESP0+0x88>
 200:	00 c0       	rjmp	.+0      	; 0x202 <__EEPROM_REGION_LENGTH__+0x2>
 202:	00 00       	nop
 204:	80 e0       	ldi	r24, 0x00	; 0
 206:	0e 94 7d 03 	call	0x6fa	; 0x6fa <ENVIA_DATO>
 20a:	89 ef       	ldi	r24, 0xF9	; 249
 20c:	90 e0       	ldi	r25, 0x00	; 0
 20e:	01 97       	sbiw	r24, 0x01	; 1
 210:	f1 f7       	brne	.-4      	; 0x20e <__EEPROM_REGION_LENGTH__+0xe>
 212:	00 c0       	rjmp	.+0      	; 0x214 <__EEPROM_REGION_LENGTH__+0x14>
 214:	00 00       	nop
 216:	08 95       	ret

Disassembly of section .text.CAR_ESP1:

00000218 <CAR_ESP1>:
 218:	88 e4       	ldi	r24, 0x48	; 72
 21a:	0e 94 4a 03 	call	0x694	; 0x694 <ENVIA_CMD>
 21e:	89 ef       	ldi	r24, 0xF9	; 249
 220:	90 e0       	ldi	r25, 0x00	; 0
 222:	01 97       	sbiw	r24, 0x01	; 1
 224:	f1 f7       	brne	.-4      	; 0x222 <CAR_ESP1+0xa>
 226:	00 c0       	rjmp	.+0      	; 0x228 <CAR_ESP1+0x10>
 228:	00 00       	nop
 22a:	80 e0       	ldi	r24, 0x00	; 0
 22c:	0e 94 7d 03 	call	0x6fa	; 0x6fa <ENVIA_DATO>
 230:	89 ef       	ldi	r24, 0xF9	; 249
 232:	90 e0       	ldi	r25, 0x00	; 0
 234:	01 97       	sbiw	r24, 0x01	; 1
 236:	f1 f7       	brne	.-4      	; 0x234 <CAR_ESP1+0x1c>
 238:	00 c0       	rjmp	.+0      	; 0x23a <CAR_ESP1+0x22>
 23a:	00 00       	nop
 23c:	8a e0       	ldi	r24, 0x0A	; 10
 23e:	0e 94 7d 03 	call	0x6fa	; 0x6fa <ENVIA_DATO>
 242:	89 ef       	ldi	r24, 0xF9	; 249
 244:	90 e0       	ldi	r25, 0x00	; 0
 246:	01 97       	sbiw	r24, 0x01	; 1
 248:	f1 f7       	brne	.-4      	; 0x246 <CAR_ESP1+0x2e>
 24a:	00 c0       	rjmp	.+0      	; 0x24c <CAR_ESP1+0x34>
 24c:	00 00       	nop
 24e:	8f e1       	ldi	r24, 0x1F	; 31
 250:	0e 94 7d 03 	call	0x6fa	; 0x6fa <ENVIA_DATO>
 254:	89 ef       	ldi	r24, 0xF9	; 249
 256:	90 e0       	ldi	r25, 0x00	; 0
 258:	01 97       	sbiw	r24, 0x01	; 1
 25a:	f1 f7       	brne	.-4      	; 0x258 <CAR_ESP1+0x40>
 25c:	00 c0       	rjmp	.+0      	; 0x25e <CAR_ESP1+0x46>
 25e:	00 00       	nop
 260:	8f e1       	ldi	r24, 0x1F	; 31
 262:	0e 94 7d 03 	call	0x6fa	; 0x6fa <ENVIA_DATO>
 266:	89 ef       	ldi	r24, 0xF9	; 249
 268:	90 e0       	ldi	r25, 0x00	; 0
 26a:	01 97       	sbiw	r24, 0x01	; 1
 26c:	f1 f7       	brne	.-4      	; 0x26a <CAR_ESP1+0x52>
 26e:	00 c0       	rjmp	.+0      	; 0x270 <CAR_ESP1+0x58>
 270:	00 00       	nop
 272:	8f e1       	ldi	r24, 0x1F	; 31
 274:	0e 94 7d 03 	call	0x6fa	; 0x6fa <ENVIA_DATO>
 278:	89 ef       	ldi	r24, 0xF9	; 249
 27a:	90 e0       	ldi	r25, 0x00	; 0
 27c:	01 97       	sbiw	r24, 0x01	; 1
 27e:	f1 f7       	brne	.-4      	; 0x27c <CAR_ESP1+0x64>
 280:	00 c0       	rjmp	.+0      	; 0x282 <CAR_ESP1+0x6a>
 282:	00 00       	nop
 284:	8e e0       	ldi	r24, 0x0E	; 14
 286:	0e 94 7d 03 	call	0x6fa	; 0x6fa <ENVIA_DATO>
 28a:	89 ef       	ldi	r24, 0xF9	; 249
 28c:	90 e0       	ldi	r25, 0x00	; 0
 28e:	01 97       	sbiw	r24, 0x01	; 1
 290:	f1 f7       	brne	.-4      	; 0x28e <CAR_ESP1+0x76>
 292:	00 c0       	rjmp	.+0      	; 0x294 <CAR_ESP1+0x7c>
 294:	00 00       	nop
 296:	84 e0       	ldi	r24, 0x04	; 4
 298:	0e 94 7d 03 	call	0x6fa	; 0x6fa <ENVIA_DATO>
 29c:	89 ef       	ldi	r24, 0xF9	; 249
 29e:	90 e0       	ldi	r25, 0x00	; 0
 2a0:	01 97       	sbiw	r24, 0x01	; 1
 2a2:	f1 f7       	brne	.-4      	; 0x2a0 <CAR_ESP1+0x88>
 2a4:	00 c0       	rjmp	.+0      	; 0x2a6 <CAR_ESP1+0x8e>
 2a6:	00 00       	nop
 2a8:	80 e0       	ldi	r24, 0x00	; 0
 2aa:	0e 94 7d 03 	call	0x6fa	; 0x6fa <ENVIA_DATO>
 2ae:	89 ef       	ldi	r24, 0xF9	; 249
 2b0:	90 e0       	ldi	r25, 0x00	; 0
 2b2:	01 97       	sbiw	r24, 0x01	; 1
 2b4:	f1 f7       	brne	.-4      	; 0x2b2 <CAR_ESP1+0x9a>
 2b6:	00 c0       	rjmp	.+0      	; 0x2b8 <CAR_ESP1+0xa0>
 2b8:	00 00       	nop
 2ba:	08 95       	ret

Disassembly of section .text.CAR_ESP2:

000002bc <CAR_ESP2>:
 2bc:	80 e5       	ldi	r24, 0x50	; 80
 2be:	0e 94 4a 03 	call	0x694	; 0x694 <ENVIA_CMD>
 2c2:	89 ef       	ldi	r24, 0xF9	; 249
 2c4:	90 e0       	ldi	r25, 0x00	; 0
 2c6:	01 97       	sbiw	r24, 0x01	; 1
 2c8:	f1 f7       	brne	.-4      	; 0x2c6 <CAR_ESP2+0xa>
 2ca:	00 c0       	rjmp	.+0      	; 0x2cc <CAR_ESP2+0x10>
 2cc:	00 00       	nop
 2ce:	80 e0       	ldi	r24, 0x00	; 0
 2d0:	0e 94 7d 03 	call	0x6fa	; 0x6fa <ENVIA_DATO>
 2d4:	89 ef       	ldi	r24, 0xF9	; 249
 2d6:	90 e0       	ldi	r25, 0x00	; 0
 2d8:	01 97       	sbiw	r24, 0x01	; 1
 2da:	f1 f7       	brne	.-4      	; 0x2d8 <CAR_ESP2+0x1c>
 2dc:	00 c0       	rjmp	.+0      	; 0x2de <CAR_ESP2+0x22>
 2de:	00 00       	nop
 2e0:	83 e0       	ldi	r24, 0x03	; 3
 2e2:	0e 94 7d 03 	call	0x6fa	; 0x6fa <ENVIA_DATO>
 2e6:	89 ef       	ldi	r24, 0xF9	; 249
 2e8:	90 e0       	ldi	r25, 0x00	; 0
 2ea:	01 97       	sbiw	r24, 0x01	; 1
 2ec:	f1 f7       	brne	.-4      	; 0x2ea <CAR_ESP2+0x2e>
 2ee:	00 c0       	rjmp	.+0      	; 0x2f0 <CAR_ESP2+0x34>
 2f0:	00 00       	nop
 2f2:	87 e0       	ldi	r24, 0x07	; 7
 2f4:	0e 94 7d 03 	call	0x6fa	; 0x6fa <ENVIA_DATO>
 2f8:	89 ef       	ldi	r24, 0xF9	; 249
 2fa:	90 e0       	ldi	r25, 0x00	; 0
 2fc:	01 97       	sbiw	r24, 0x01	; 1
 2fe:	f1 f7       	brne	.-4      	; 0x2fc <CAR_ESP2+0x40>
 300:	00 c0       	rjmp	.+0      	; 0x302 <CAR_ESP2+0x46>
 302:	00 00       	nop
 304:	86 e1       	ldi	r24, 0x16	; 22
 306:	0e 94 7d 03 	call	0x6fa	; 0x6fa <ENVIA_DATO>
 30a:	89 ef       	ldi	r24, 0xF9	; 249
 30c:	90 e0       	ldi	r25, 0x00	; 0
 30e:	01 97       	sbiw	r24, 0x01	; 1
 310:	f1 f7       	brne	.-4      	; 0x30e <CAR_ESP2+0x52>
 312:	00 c0       	rjmp	.+0      	; 0x314 <CAR_ESP2+0x58>
 314:	00 00       	nop
 316:	88 e0       	ldi	r24, 0x08	; 8
 318:	0e 94 7d 03 	call	0x6fa	; 0x6fa <ENVIA_DATO>
 31c:	89 ef       	ldi	r24, 0xF9	; 249
 31e:	90 e0       	ldi	r25, 0x00	; 0
 320:	01 97       	sbiw	r24, 0x01	; 1
 322:	f1 f7       	brne	.-4      	; 0x320 <CAR_ESP2+0x64>
 324:	00 c0       	rjmp	.+0      	; 0x326 <CAR_ESP2+0x6a>
 326:	00 00       	nop
 328:	84 e1       	ldi	r24, 0x14	; 20
 32a:	0e 94 7d 03 	call	0x6fa	; 0x6fa <ENVIA_DATO>
 32e:	89 ef       	ldi	r24, 0xF9	; 249
 330:	90 e0       	ldi	r25, 0x00	; 0
 332:	01 97       	sbiw	r24, 0x01	; 1
 334:	f1 f7       	brne	.-4      	; 0x332 <CAR_ESP2+0x76>
 336:	00 c0       	rjmp	.+0      	; 0x338 <CAR_ESP2+0x7c>
 338:	00 00       	nop
 33a:	80 e0       	ldi	r24, 0x00	; 0
 33c:	0e 94 7d 03 	call	0x6fa	; 0x6fa <ENVIA_DATO>
 340:	89 ef       	ldi	r24, 0xF9	; 249
 342:	90 e0       	ldi	r25, 0x00	; 0
 344:	01 97       	sbiw	r24, 0x01	; 1
 346:	f1 f7       	brne	.-4      	; 0x344 <CAR_ESP2+0x88>
 348:	00 c0       	rjmp	.+0      	; 0x34a <CAR_ESP2+0x8e>
 34a:	00 00       	nop
 34c:	80 e0       	ldi	r24, 0x00	; 0
 34e:	0e 94 7d 03 	call	0x6fa	; 0x6fa <ENVIA_DATO>
 352:	89 ef       	ldi	r24, 0xF9	; 249
 354:	90 e0       	ldi	r25, 0x00	; 0
 356:	01 97       	sbiw	r24, 0x01	; 1
 358:	f1 f7       	brne	.-4      	; 0x356 <CAR_ESP2+0x9a>
 35a:	00 c0       	rjmp	.+0      	; 0x35c <CAR_ESP2+0xa0>
 35c:	00 00       	nop
 35e:	08 95       	ret

Disassembly of section .text.CAR_ESP3:

00000360 <CAR_ESP3>:
 360:	88 e5       	ldi	r24, 0x58	; 88
 362:	0e 94 4a 03 	call	0x694	; 0x694 <ENVIA_CMD>
 366:	89 ef       	ldi	r24, 0xF9	; 249
 368:	90 e0       	ldi	r25, 0x00	; 0
 36a:	01 97       	sbiw	r24, 0x01	; 1
 36c:	f1 f7       	brne	.-4      	; 0x36a <CAR_ESP3+0xa>
 36e:	00 c0       	rjmp	.+0      	; 0x370 <CAR_ESP3+0x10>
 370:	00 00       	nop
 372:	80 e0       	ldi	r24, 0x00	; 0
 374:	0e 94 7d 03 	call	0x6fa	; 0x6fa <ENVIA_DATO>
 378:	89 ef       	ldi	r24, 0xF9	; 249
 37a:	90 e0       	ldi	r25, 0x00	; 0
 37c:	01 97       	sbiw	r24, 0x01	; 1
 37e:	f1 f7       	brne	.-4      	; 0x37c <CAR_ESP3+0x1c>
 380:	00 c0       	rjmp	.+0      	; 0x382 <CAR_ESP3+0x22>
 382:	00 00       	nop
 384:	80 e0       	ldi	r24, 0x00	; 0
 386:	0e 94 7d 03 	call	0x6fa	; 0x6fa <ENVIA_DATO>
 38a:	89 ef       	ldi	r24, 0xF9	; 249
 38c:	90 e0       	ldi	r25, 0x00	; 0
 38e:	01 97       	sbiw	r24, 0x01	; 1
 390:	f1 f7       	brne	.-4      	; 0x38e <CAR_ESP3+0x2e>
 392:	00 c0       	rjmp	.+0      	; 0x394 <CAR_ESP3+0x34>
 394:	00 00       	nop
 396:	80 e0       	ldi	r24, 0x00	; 0
 398:	0e 94 7d 03 	call	0x6fa	; 0x6fa <ENVIA_DATO>
 39c:	89 ef       	ldi	r24, 0xF9	; 249
 39e:	90 e0       	ldi	r25, 0x00	; 0
 3a0:	01 97       	sbiw	r24, 0x01	; 1
 3a2:	f1 f7       	brne	.-4      	; 0x3a0 <CAR_ESP3+0x40>
 3a4:	00 c0       	rjmp	.+0      	; 0x3a6 <CAR_ESP3+0x46>
 3a6:	00 00       	nop
 3a8:	84 e1       	ldi	r24, 0x14	; 20
 3aa:	0e 94 7d 03 	call	0x6fa	; 0x6fa <ENVIA_DATO>
 3ae:	89 ef       	ldi	r24, 0xF9	; 249
 3b0:	90 e0       	ldi	r25, 0x00	; 0
 3b2:	01 97       	sbiw	r24, 0x01	; 1
 3b4:	f1 f7       	brne	.-4      	; 0x3b2 <CAR_ESP3+0x52>
 3b6:	00 c0       	rjmp	.+0      	; 0x3b8 <CAR_ESP3+0x58>
 3b8:	00 00       	nop
 3ba:	88 e0       	ldi	r24, 0x08	; 8
 3bc:	0e 94 7d 03 	call	0x6fa	; 0x6fa <ENVIA_DATO>
 3c0:	89 ef       	ldi	r24, 0xF9	; 249
 3c2:	90 e0       	ldi	r25, 0x00	; 0
 3c4:	01 97       	sbiw	r24, 0x01	; 1
 3c6:	f1 f7       	brne	.-4      	; 0x3c4 <CAR_ESP3+0x64>
 3c8:	00 c0       	rjmp	.+0      	; 0x3ca <CAR_ESP3+0x6a>
 3ca:	00 00       	nop
 3cc:	84 e1       	ldi	r24, 0x14	; 20
 3ce:	0e 94 7d 03 	call	0x6fa	; 0x6fa <ENVIA_DATO>
 3d2:	89 ef       	ldi	r24, 0xF9	; 249
 3d4:	90 e0       	ldi	r25, 0x00	; 0
 3d6:	01 97       	sbiw	r24, 0x01	; 1
 3d8:	f1 f7       	brne	.-4      	; 0x3d6 <CAR_ESP3+0x76>
 3da:	00 c0       	rjmp	.+0      	; 0x3dc <CAR_ESP3+0x7c>
 3dc:	00 00       	nop
 3de:	87 e0       	ldi	r24, 0x07	; 7
 3e0:	0e 94 7d 03 	call	0x6fa	; 0x6fa <ENVIA_DATO>
 3e4:	89 ef       	ldi	r24, 0xF9	; 249
 3e6:	90 e0       	ldi	r25, 0x00	; 0
 3e8:	01 97       	sbiw	r24, 0x01	; 1
 3ea:	f1 f7       	brne	.-4      	; 0x3e8 <CAR_ESP3+0x88>
 3ec:	00 c0       	rjmp	.+0      	; 0x3ee <CAR_ESP3+0x8e>
 3ee:	00 00       	nop
 3f0:	83 e0       	ldi	r24, 0x03	; 3
 3f2:	0e 94 7d 03 	call	0x6fa	; 0x6fa <ENVIA_DATO>
 3f6:	89 ef       	ldi	r24, 0xF9	; 249
 3f8:	90 e0       	ldi	r25, 0x00	; 0
 3fa:	01 97       	sbiw	r24, 0x01	; 1
 3fc:	f1 f7       	brne	.-4      	; 0x3fa <CAR_ESP3+0x9a>
 3fe:	00 c0       	rjmp	.+0      	; 0x400 <__DATA_REGION_LENGTH__>
 400:	00 00       	nop
 402:	08 95       	ret

Disassembly of section .text.CAR_ESP4:

00000404 <CAR_ESP4>:
 404:	80 e6       	ldi	r24, 0x60	; 96
 406:	0e 94 4a 03 	call	0x694	; 0x694 <ENVIA_CMD>
 40a:	89 ef       	ldi	r24, 0xF9	; 249
 40c:	90 e0       	ldi	r25, 0x00	; 0
 40e:	01 97       	sbiw	r24, 0x01	; 1
 410:	f1 f7       	brne	.-4      	; 0x40e <CAR_ESP4+0xa>
 412:	00 c0       	rjmp	.+0      	; 0x414 <CAR_ESP4+0x10>
 414:	00 00       	nop
 416:	84 e0       	ldi	r24, 0x04	; 4
 418:	0e 94 7d 03 	call	0x6fa	; 0x6fa <ENVIA_DATO>
 41c:	89 ef       	ldi	r24, 0xF9	; 249
 41e:	90 e0       	ldi	r25, 0x00	; 0
 420:	01 97       	sbiw	r24, 0x01	; 1
 422:	f1 f7       	brne	.-4      	; 0x420 <CAR_ESP4+0x1c>
 424:	00 c0       	rjmp	.+0      	; 0x426 <CAR_ESP4+0x22>
 426:	00 00       	nop
 428:	84 e0       	ldi	r24, 0x04	; 4
 42a:	0e 94 7d 03 	call	0x6fa	; 0x6fa <ENVIA_DATO>
 42e:	89 ef       	ldi	r24, 0xF9	; 249
 430:	90 e0       	ldi	r25, 0x00	; 0
 432:	01 97       	sbiw	r24, 0x01	; 1
 434:	f1 f7       	brne	.-4      	; 0x432 <CAR_ESP4+0x2e>
 436:	00 c0       	rjmp	.+0      	; 0x438 <CAR_ESP4+0x34>
 438:	00 00       	nop
 43a:	8e e0       	ldi	r24, 0x0E	; 14
 43c:	0e 94 7d 03 	call	0x6fa	; 0x6fa <ENVIA_DATO>
 440:	89 ef       	ldi	r24, 0xF9	; 249
 442:	90 e0       	ldi	r25, 0x00	; 0
 444:	01 97       	sbiw	r24, 0x01	; 1
 446:	f1 f7       	brne	.-4      	; 0x444 <CAR_ESP4+0x40>
 448:	00 c0       	rjmp	.+0      	; 0x44a <CAR_ESP4+0x46>
 44a:	00 00       	nop
 44c:	8f e1       	ldi	r24, 0x1F	; 31
 44e:	0e 94 7d 03 	call	0x6fa	; 0x6fa <ENVIA_DATO>
 452:	89 ef       	ldi	r24, 0xF9	; 249
 454:	90 e0       	ldi	r25, 0x00	; 0
 456:	01 97       	sbiw	r24, 0x01	; 1
 458:	f1 f7       	brne	.-4      	; 0x456 <CAR_ESP4+0x52>
 45a:	00 c0       	rjmp	.+0      	; 0x45c <CAR_ESP4+0x58>
 45c:	00 00       	nop
 45e:	8f e1       	ldi	r24, 0x1F	; 31
 460:	0e 94 7d 03 	call	0x6fa	; 0x6fa <ENVIA_DATO>
 464:	89 ef       	ldi	r24, 0xF9	; 249
 466:	90 e0       	ldi	r25, 0x00	; 0
 468:	01 97       	sbiw	r24, 0x01	; 1
 46a:	f1 f7       	brne	.-4      	; 0x468 <__stack+0x9>
 46c:	00 c0       	rjmp	.+0      	; 0x46e <__stack+0xf>
 46e:	00 00       	nop
 470:	84 e0       	ldi	r24, 0x04	; 4
 472:	0e 94 7d 03 	call	0x6fa	; 0x6fa <ENVIA_DATO>
 476:	89 ef       	ldi	r24, 0xF9	; 249
 478:	90 e0       	ldi	r25, 0x00	; 0
 47a:	01 97       	sbiw	r24, 0x01	; 1
 47c:	f1 f7       	brne	.-4      	; 0x47a <__stack+0x1b>
 47e:	00 c0       	rjmp	.+0      	; 0x480 <__stack+0x21>
 480:	00 00       	nop
 482:	84 e0       	ldi	r24, 0x04	; 4
 484:	0e 94 7d 03 	call	0x6fa	; 0x6fa <ENVIA_DATO>
 488:	89 ef       	ldi	r24, 0xF9	; 249
 48a:	90 e0       	ldi	r25, 0x00	; 0
 48c:	01 97       	sbiw	r24, 0x01	; 1
 48e:	f1 f7       	brne	.-4      	; 0x48c <__stack+0x2d>
 490:	00 c0       	rjmp	.+0      	; 0x492 <__stack+0x33>
 492:	00 00       	nop
 494:	84 e0       	ldi	r24, 0x04	; 4
 496:	0e 94 7d 03 	call	0x6fa	; 0x6fa <ENVIA_DATO>
 49a:	89 ef       	ldi	r24, 0xF9	; 249
 49c:	90 e0       	ldi	r25, 0x00	; 0
 49e:	01 97       	sbiw	r24, 0x01	; 1
 4a0:	f1 f7       	brne	.-4      	; 0x49e <__stack+0x3f>
 4a2:	00 c0       	rjmp	.+0      	; 0x4a4 <__stack+0x45>
 4a4:	00 00       	nop
 4a6:	08 95       	ret

Disassembly of section .text.CAR_ESP5:

000004a8 <CAR_ESP5>:
 4a8:	88 e6       	ldi	r24, 0x68	; 104
 4aa:	0e 94 4a 03 	call	0x694	; 0x694 <ENVIA_CMD>
 4ae:	89 ef       	ldi	r24, 0xF9	; 249
 4b0:	90 e0       	ldi	r25, 0x00	; 0
 4b2:	01 97       	sbiw	r24, 0x01	; 1
 4b4:	f1 f7       	brne	.-4      	; 0x4b2 <CAR_ESP5+0xa>
 4b6:	00 c0       	rjmp	.+0      	; 0x4b8 <CAR_ESP5+0x10>
 4b8:	00 00       	nop
 4ba:	8e e0       	ldi	r24, 0x0E	; 14
 4bc:	0e 94 7d 03 	call	0x6fa	; 0x6fa <ENVIA_DATO>
 4c0:	89 ef       	ldi	r24, 0xF9	; 249
 4c2:	90 e0       	ldi	r25, 0x00	; 0
 4c4:	01 97       	sbiw	r24, 0x01	; 1
 4c6:	f1 f7       	brne	.-4      	; 0x4c4 <CAR_ESP5+0x1c>
 4c8:	00 c0       	rjmp	.+0      	; 0x4ca <CAR_ESP5+0x22>
 4ca:	00 00       	nop
 4cc:	8a e0       	ldi	r24, 0x0A	; 10
 4ce:	0e 94 7d 03 	call	0x6fa	; 0x6fa <ENVIA_DATO>
 4d2:	89 ef       	ldi	r24, 0xF9	; 249
 4d4:	90 e0       	ldi	r25, 0x00	; 0
 4d6:	01 97       	sbiw	r24, 0x01	; 1
 4d8:	f1 f7       	brne	.-4      	; 0x4d6 <CAR_ESP5+0x2e>
 4da:	00 c0       	rjmp	.+0      	; 0x4dc <CAR_ESP5+0x34>
 4dc:	00 00       	nop
 4de:	8e e0       	ldi	r24, 0x0E	; 14
 4e0:	0e 94 7d 03 	call	0x6fa	; 0x6fa <ENVIA_DATO>
 4e4:	89 ef       	ldi	r24, 0xF9	; 249
 4e6:	90 e0       	ldi	r25, 0x00	; 0
 4e8:	01 97       	sbiw	r24, 0x01	; 1
 4ea:	f1 f7       	brne	.-4      	; 0x4e8 <CAR_ESP5+0x40>
 4ec:	00 c0       	rjmp	.+0      	; 0x4ee <CAR_ESP5+0x46>
 4ee:	00 00       	nop
 4f0:	84 e0       	ldi	r24, 0x04	; 4
 4f2:	0e 94 7d 03 	call	0x6fa	; 0x6fa <ENVIA_DATO>
 4f6:	89 ef       	ldi	r24, 0xF9	; 249
 4f8:	90 e0       	ldi	r25, 0x00	; 0
 4fa:	01 97       	sbiw	r24, 0x01	; 1
 4fc:	f1 f7       	brne	.-4      	; 0x4fa <CAR_ESP5+0x52>
 4fe:	00 c0       	rjmp	.+0      	; 0x500 <CAR_ESP5+0x58>
 500:	00 00       	nop
 502:	8f e1       	ldi	r24, 0x1F	; 31
 504:	0e 94 7d 03 	call	0x6fa	; 0x6fa <ENVIA_DATO>
 508:	89 ef       	ldi	r24, 0xF9	; 249
 50a:	90 e0       	ldi	r25, 0x00	; 0
 50c:	01 97       	sbiw	r24, 0x01	; 1
 50e:	f1 f7       	brne	.-4      	; 0x50c <CAR_ESP5+0x64>
 510:	00 c0       	rjmp	.+0      	; 0x512 <CAR_ESP5+0x6a>
 512:	00 00       	nop
 514:	84 e0       	ldi	r24, 0x04	; 4
 516:	0e 94 7d 03 	call	0x6fa	; 0x6fa <ENVIA_DATO>
 51a:	89 ef       	ldi	r24, 0xF9	; 249
 51c:	90 e0       	ldi	r25, 0x00	; 0
 51e:	01 97       	sbiw	r24, 0x01	; 1
 520:	f1 f7       	brne	.-4      	; 0x51e <CAR_ESP5+0x76>
 522:	00 c0       	rjmp	.+0      	; 0x524 <CAR_ESP5+0x7c>
 524:	00 00       	nop
 526:	8a e0       	ldi	r24, 0x0A	; 10
 528:	0e 94 7d 03 	call	0x6fa	; 0x6fa <ENVIA_DATO>
 52c:	89 ef       	ldi	r24, 0xF9	; 249
 52e:	90 e0       	ldi	r25, 0x00	; 0
 530:	01 97       	sbiw	r24, 0x01	; 1
 532:	f1 f7       	brne	.-4      	; 0x530 <CAR_ESP5+0x88>
 534:	00 c0       	rjmp	.+0      	; 0x536 <CAR_ESP5+0x8e>
 536:	00 00       	nop
 538:	81 e1       	ldi	r24, 0x11	; 17
 53a:	0e 94 7d 03 	call	0x6fa	; 0x6fa <ENVIA_DATO>
 53e:	89 ef       	ldi	r24, 0xF9	; 249
 540:	90 e0       	ldi	r25, 0x00	; 0
 542:	01 97       	sbiw	r24, 0x01	; 1
 544:	f1 f7       	brne	.-4      	; 0x542 <CAR_ESP5+0x9a>
 546:	00 c0       	rjmp	.+0      	; 0x548 <CAR_ESP5+0xa0>
 548:	00 00       	nop
 54a:	08 95       	ret

Disassembly of section .text.CAR_ESP6:

0000054c <CAR_ESP6>:
 54c:	80 e7       	ldi	r24, 0x70	; 112
 54e:	0e 94 4a 03 	call	0x694	; 0x694 <ENVIA_CMD>
 552:	89 ef       	ldi	r24, 0xF9	; 249
 554:	90 e0       	ldi	r25, 0x00	; 0
 556:	01 97       	sbiw	r24, 0x01	; 1
 558:	f1 f7       	brne	.-4      	; 0x556 <CAR_ESP6+0xa>
 55a:	00 c0       	rjmp	.+0      	; 0x55c <CAR_ESP6+0x10>
 55c:	00 00       	nop
 55e:	81 e0       	ldi	r24, 0x01	; 1
 560:	0e 94 7d 03 	call	0x6fa	; 0x6fa <ENVIA_DATO>
 564:	89 ef       	ldi	r24, 0xF9	; 249
 566:	90 e0       	ldi	r25, 0x00	; 0
 568:	01 97       	sbiw	r24, 0x01	; 1
 56a:	f1 f7       	brne	.-4      	; 0x568 <CAR_ESP6+0x1c>
 56c:	00 c0       	rjmp	.+0      	; 0x56e <CAR_ESP6+0x22>
 56e:	00 00       	nop
 570:	83 e0       	ldi	r24, 0x03	; 3
 572:	0e 94 7d 03 	call	0x6fa	; 0x6fa <ENVIA_DATO>
 576:	89 ef       	ldi	r24, 0xF9	; 249
 578:	90 e0       	ldi	r25, 0x00	; 0
 57a:	01 97       	sbiw	r24, 0x01	; 1
 57c:	f1 f7       	brne	.-4      	; 0x57a <CAR_ESP6+0x2e>
 57e:	00 c0       	rjmp	.+0      	; 0x580 <CAR_ESP6+0x34>
 580:	00 00       	nop
 582:	85 e0       	ldi	r24, 0x05	; 5
 584:	0e 94 7d 03 	call	0x6fa	; 0x6fa <ENVIA_DATO>
 588:	89 ef       	ldi	r24, 0xF9	; 249
 58a:	90 e0       	ldi	r25, 0x00	; 0
 58c:	01 97       	sbiw	r24, 0x01	; 1
 58e:	f1 f7       	brne	.-4      	; 0x58c <CAR_ESP6+0x40>
 590:	00 c0       	rjmp	.+0      	; 0x592 <CAR_ESP6+0x46>
 592:	00 00       	nop
 594:	89 e0       	ldi	r24, 0x09	; 9
 596:	0e 94 7d 03 	call	0x6fa	; 0x6fa <ENVIA_DATO>
 59a:	89 ef       	ldi	r24, 0xF9	; 249
 59c:	90 e0       	ldi	r25, 0x00	; 0
 59e:	01 97       	sbiw	r24, 0x01	; 1
 5a0:	f1 f7       	brne	.-4      	; 0x59e <CAR_ESP6+0x52>
 5a2:	00 c0       	rjmp	.+0      	; 0x5a4 <CAR_ESP6+0x58>
 5a4:	00 00       	nop
 5a6:	89 e0       	ldi	r24, 0x09	; 9
 5a8:	0e 94 7d 03 	call	0x6fa	; 0x6fa <ENVIA_DATO>
 5ac:	89 ef       	ldi	r24, 0xF9	; 249
 5ae:	90 e0       	ldi	r25, 0x00	; 0
 5b0:	01 97       	sbiw	r24, 0x01	; 1
 5b2:	f1 f7       	brne	.-4      	; 0x5b0 <CAR_ESP6+0x64>
 5b4:	00 c0       	rjmp	.+0      	; 0x5b6 <CAR_ESP6+0x6a>
 5b6:	00 00       	nop
 5b8:	8b e0       	ldi	r24, 0x0B	; 11
 5ba:	0e 94 7d 03 	call	0x6fa	; 0x6fa <ENVIA_DATO>
 5be:	89 ef       	ldi	r24, 0xF9	; 249
 5c0:	90 e0       	ldi	r25, 0x00	; 0
 5c2:	01 97       	sbiw	r24, 0x01	; 1
 5c4:	f1 f7       	brne	.-4      	; 0x5c2 <CAR_ESP6+0x76>
 5c6:	00 c0       	rjmp	.+0      	; 0x5c8 <CAR_ESP6+0x7c>
 5c8:	00 00       	nop
 5ca:	8b e1       	ldi	r24, 0x1B	; 27
 5cc:	0e 94 7d 03 	call	0x6fa	; 0x6fa <ENVIA_DATO>
 5d0:	89 ef       	ldi	r24, 0xF9	; 249
 5d2:	90 e0       	ldi	r25, 0x00	; 0
 5d4:	01 97       	sbiw	r24, 0x01	; 1
 5d6:	f1 f7       	brne	.-4      	; 0x5d4 <CAR_ESP6+0x88>
 5d8:	00 c0       	rjmp	.+0      	; 0x5da <CAR_ESP6+0x8e>
 5da:	00 00       	nop
 5dc:	88 e1       	ldi	r24, 0x18	; 24
 5de:	0e 94 7d 03 	call	0x6fa	; 0x6fa <ENVIA_DATO>
 5e2:	89 ef       	ldi	r24, 0xF9	; 249
 5e4:	90 e0       	ldi	r25, 0x00	; 0
 5e6:	01 97       	sbiw	r24, 0x01	; 1
 5e8:	f1 f7       	brne	.-4      	; 0x5e6 <CAR_ESP6+0x9a>
 5ea:	00 c0       	rjmp	.+0      	; 0x5ec <CAR_ESP6+0xa0>
 5ec:	00 00       	nop
 5ee:	08 95       	ret

Disassembly of section .text.CAR_ESP7:

000005f0 <CAR_ESP7>:
 5f0:	88 e7       	ldi	r24, 0x78	; 120
 5f2:	0e 94 4a 03 	call	0x694	; 0x694 <ENVIA_CMD>
 5f6:	89 ef       	ldi	r24, 0xF9	; 249
 5f8:	90 e0       	ldi	r25, 0x00	; 0
 5fa:	01 97       	sbiw	r24, 0x01	; 1
 5fc:	f1 f7       	brne	.-4      	; 0x5fa <CAR_ESP7+0xa>
 5fe:	00 c0       	rjmp	.+0      	; 0x600 <CAR_ESP7+0x10>
 600:	00 00       	nop
 602:	8e e0       	ldi	r24, 0x0E	; 14
 604:	0e 94 7d 03 	call	0x6fa	; 0x6fa <ENVIA_DATO>
 608:	89 ef       	ldi	r24, 0xF9	; 249
 60a:	90 e0       	ldi	r25, 0x00	; 0
 60c:	01 97       	sbiw	r24, 0x01	; 1
 60e:	f1 f7       	brne	.-4      	; 0x60c <CAR_ESP7+0x1c>
 610:	00 c0       	rjmp	.+0      	; 0x612 <CAR_ESP7+0x22>
 612:	00 00       	nop
 614:	81 e1       	ldi	r24, 0x11	; 17
 616:	0e 94 7d 03 	call	0x6fa	; 0x6fa <ENVIA_DATO>
 61a:	89 ef       	ldi	r24, 0xF9	; 249
 61c:	90 e0       	ldi	r25, 0x00	; 0
 61e:	01 97       	sbiw	r24, 0x01	; 1
 620:	f1 f7       	brne	.-4      	; 0x61e <CAR_ESP7+0x2e>
 622:	00 c0       	rjmp	.+0      	; 0x624 <CAR_ESP7+0x34>
 624:	00 00       	nop
 626:	81 e1       	ldi	r24, 0x11	; 17
 628:	0e 94 7d 03 	call	0x6fa	; 0x6fa <ENVIA_DATO>
 62c:	89 ef       	ldi	r24, 0xF9	; 249
 62e:	90 e0       	ldi	r25, 0x00	; 0
 630:	01 97       	sbiw	r24, 0x01	; 1
 632:	f1 f7       	brne	.-4      	; 0x630 <CAR_ESP7+0x40>
 634:	00 c0       	rjmp	.+0      	; 0x636 <CAR_ESP7+0x46>
 636:	00 00       	nop
 638:	81 e1       	ldi	r24, 0x11	; 17
 63a:	0e 94 7d 03 	call	0x6fa	; 0x6fa <ENVIA_DATO>
 63e:	89 ef       	ldi	r24, 0xF9	; 249
 640:	90 e0       	ldi	r25, 0x00	; 0
 642:	01 97       	sbiw	r24, 0x01	; 1
 644:	f1 f7       	brne	.-4      	; 0x642 <CAR_ESP7+0x52>
 646:	00 c0       	rjmp	.+0      	; 0x648 <CAR_ESP7+0x58>
 648:	00 00       	nop
 64a:	8f e1       	ldi	r24, 0x1F	; 31
 64c:	0e 94 7d 03 	call	0x6fa	; 0x6fa <ENVIA_DATO>
 650:	89 ef       	ldi	r24, 0xF9	; 249
 652:	90 e0       	ldi	r25, 0x00	; 0
 654:	01 97       	sbiw	r24, 0x01	; 1
 656:	f1 f7       	brne	.-4      	; 0x654 <CAR_ESP7+0x64>
 658:	00 c0       	rjmp	.+0      	; 0x65a <CAR_ESP7+0x6a>
 65a:	00 00       	nop
 65c:	8b e1       	ldi	r24, 0x1B	; 27
 65e:	0e 94 7d 03 	call	0x6fa	; 0x6fa <ENVIA_DATO>
 662:	89 ef       	ldi	r24, 0xF9	; 249
 664:	90 e0       	ldi	r25, 0x00	; 0
 666:	01 97       	sbiw	r24, 0x01	; 1
 668:	f1 f7       	brne	.-4      	; 0x666 <CAR_ESP7+0x76>
 66a:	00 c0       	rjmp	.+0      	; 0x66c <CAR_ESP7+0x7c>
 66c:	00 00       	nop
 66e:	8b e1       	ldi	r24, 0x1B	; 27
 670:	0e 94 7d 03 	call	0x6fa	; 0x6fa <ENVIA_DATO>
 674:	89 ef       	ldi	r24, 0xF9	; 249
 676:	90 e0       	ldi	r25, 0x00	; 0
 678:	01 97       	sbiw	r24, 0x01	; 1
 67a:	f1 f7       	brne	.-4      	; 0x678 <CAR_ESP7+0x88>
 67c:	00 c0       	rjmp	.+0      	; 0x67e <CAR_ESP7+0x8e>
 67e:	00 00       	nop
 680:	8f e1       	ldi	r24, 0x1F	; 31
 682:	0e 94 7d 03 	call	0x6fa	; 0x6fa <ENVIA_DATO>
 686:	89 ef       	ldi	r24, 0xF9	; 249
 688:	90 e0       	ldi	r25, 0x00	; 0
 68a:	01 97       	sbiw	r24, 0x01	; 1
 68c:	f1 f7       	brne	.-4      	; 0x68a <CAR_ESP7+0x9a>
 68e:	00 c0       	rjmp	.+0      	; 0x690 <CAR_ESP7+0xa0>
 690:	00 00       	nop
 692:	08 95       	ret

Disassembly of section .text.main:

000000b0 <main>:


int main(void)
{
	// Configura PORTC como salida (todos los pines)
	DDRC = 0xFF;
  b0:	8f ef       	ldi	r24, 0xFF	; 255
  b2:	84 bb       	out	0x14, r24	; 20

	// Inicializa el LCD
	LCD_INICIALIZA();
  b4:	0e 94 c6 03 	call	0x78c	; 0x78c <LCD_INICIALIZA>

	

	// Limpia la pantalla y coloca el cursor en la posición inicial
	LIMPIA_LCD();
  b8:	0e 94 e4 03 	call	0x7c8	; 0x7c8 <LIMPIA_LCD>
	POS_LINEA1(0); // Cursor en línea 1, posición 0
  bc:	80 e0       	ldi	r24, 0x00	; 0
  be:	0e 94 e8 03 	call	0x7d0	; 0x7d0 <POS_LINEA1>

	// Escribe un mensaje de bienvenida
	
	ENVIA_CADENA(mensaje);
  c2:	80 e6       	ldi	r24, 0x60	; 96
  c4:	90 e0       	ldi	r25, 0x00	; 0
  c6:	0e 94 b0 03 	call	0x760	; 0x760 <ENVIA_CADENA>
	#else
		//round up by default
		__ticks_dc = (uint32_t)(ceil(fabs(__tmp)));
	#endif

	__builtin_avr_delay_cycles(__ticks_dc);
  ca:	8f e4       	ldi	r24, 0x4F	; 79
  cc:	93 ec       	ldi	r25, 0xC3	; 195
  ce:	01 97       	sbiw	r24, 0x01	; 1
  d0:	f1 f7       	brne	.-4      	; 0xce <main+0x1e>
  d2:	00 c0       	rjmp	.+0      	; 0xd4 <main+0x24>
  d4:	00 00       	nop

	while (1)
	{
		
		// Opcional: Crea los caracteres especiales para la animación
		CAR_ESP0();
  d6:	0e 94 ba 00 	call	0x174	; 0x174 <CAR_ESP0>
		CAR_ESP1();
  da:	0e 94 0c 01 	call	0x218	; 0x218 <CAR_ESP1>
		CAR_ESP2();
  de:	0e 94 5e 01 	call	0x2bc	; 0x2bc <CAR_ESP2>
		CAR_ESP3();
  e2:	0e 94 b0 01 	call	0x360	; 0x360 <CAR_ESP3>
		CAR_ESP4();
  e6:	0e 94 02 02 	call	0x404	; 0x404 <CAR_ESP4>
		CAR_ESP5();
  ea:	0e 94 54 02 	call	0x4a8	; 0x4a8 <CAR_ESP5>
		CAR_ESP6();
  ee:	0e 94 a6 02 	call	0x54c	; 0x54c <CAR_ESP6>
		CAR_ESP7();
  f2:	0e 94 f8 02 	call	0x5f0	; 0x5f0 <CAR_ESP7>
		
				
				
				
		LIMPIA_LCD();
  f6:	0e 94 e4 03 	call	0x7c8	; 0x7c8 <LIMPIA_LCD>
		POS_LINEA1(0);
  fa:	80 e0       	ldi	r24, 0x00	; 0
  fc:	0e 94 e8 03 	call	0x7d0	; 0x7d0 <POS_LINEA1>

		
		// Muestra los 8 caracteres especiales después del texto
		for (char i = 0; i < 8; i++) {
 100:	c0 e0       	ldi	r28, 0x00	; 0
 102:	0d c0       	rjmp	.+26     	; 0x11e <main+0x6e>
			ENVIA_DATO(i); // Visualiza el carácter especial i
 104:	8c 2f       	mov	r24, r28
 106:	0e 94 7d 03 	call	0x6fa	; 0x6fa <ENVIA_DATO>
 10a:	9f e5       	ldi	r25, 0x5F	; 95
 10c:	2a ee       	ldi	r18, 0xEA	; 234
 10e:	80 e0       	ldi	r24, 0x00	; 0
 110:	91 50       	subi	r25, 0x01	; 1
 112:	20 40       	sbci	r18, 0x00	; 0
 114:	80 40       	sbci	r24, 0x00	; 0
 116:	e1 f7       	brne	.-8      	; 0x110 <main+0x60>
 118:	00 c0       	rjmp	.+0      	; 0x11a <main+0x6a>
 11a:	00 00       	nop
		LIMPIA_LCD();
		POS_LINEA1(0);

		
		// Muestra los 8 caracteres especiales después del texto
		for (char i = 0; i < 8; i++) {
 11c:	cf 5f       	subi	r28, 0xFF	; 255
 11e:	c8 30       	cpi	r28, 0x08	; 8
 120:	88 f3       	brcs	.-30     	; 0x104 <main+0x54>
			ENVIA_DATO(i); // Visualiza el carácter especial i
			_delay_ms(300); // Pequeño retardo para verlos aparecer
		}
	
		POS_LINEA2(0);
 122:	80 e0       	ldi	r24, 0x00	; 0
 124:	0e 94 ec 03 	call	0x7d8	; 0x7d8 <POS_LINEA2>

		
		// Muestra los 8 caracteres especiales después del texto
		for (char i = 0; i < 8; i++) {
 128:	c0 e0       	ldi	r28, 0x00	; 0
 12a:	0d c0       	rjmp	.+26     	; 0x146 <main+0x96>
			ENVIA_DATO(i); // Visualiza el carácter especial i
 12c:	8c 2f       	mov	r24, r28
 12e:	0e 94 7d 03 	call	0x6fa	; 0x6fa <ENVIA_DATO>
 132:	9f e5       	ldi	r25, 0x5F	; 95
 134:	2a ee       	ldi	r18, 0xEA	; 234
 136:	80 e0       	ldi	r24, 0x00	; 0
 138:	91 50       	subi	r25, 0x01	; 1
 13a:	20 40       	sbci	r18, 0x00	; 0
 13c:	80 40       	sbci	r24, 0x00	; 0
 13e:	e1 f7       	brne	.-8      	; 0x138 <main+0x88>
 140:	00 c0       	rjmp	.+0      	; 0x142 <main+0x92>
 142:	00 00       	nop
	
		POS_LINEA2(0);

		
		// Muestra los 8 caracteres especiales después del texto
		for (char i = 0; i < 8; i++) {
 144:	cf 5f       	subi	r28, 0xFF	; 255
 146:	c8 30       	cpi	r28, 0x08	; 8
 148:	88 f3       	brcs	.-30     	; 0x12c <main+0x7c>
			ENVIA_DATO(i); // Visualiza el carácter especial i
			_delay_ms(300); // Pequeño retardo para verlos aparecer
		}
		
		POS_LINEA3(0);
 14a:	80 e0       	ldi	r24, 0x00	; 0
 14c:	0e 94 f0 03 	call	0x7e0	; 0x7e0 <POS_LINEA3>

		
		// Muestra los 8 caracteres especiales después del texto
		for (char i = 0; i < 8; i++) {
 150:	c0 e0       	ldi	r28, 0x00	; 0
 152:	0d c0       	rjmp	.+26     	; 0x16e <main+0xbe>
			ENVIA_DATO(i); // Visualiza el carácter especial i
 154:	8c 2f       	mov	r24, r28
 156:	0e 94 7d 03 	call	0x6fa	; 0x6fa <ENVIA_DATO>
 15a:	9f e5       	ldi	r25, 0x5F	; 95
 15c:	2a ee       	ldi	r18, 0xEA	; 234
 15e:	80 e0       	ldi	r24, 0x00	; 0
 160:	91 50       	subi	r25, 0x01	; 1
 162:	20 40       	sbci	r18, 0x00	; 0
 164:	80 40       	sbci	r24, 0x00	; 0
 166:	e1 f7       	brne	.-8      	; 0x160 <main+0xb0>
 168:	00 c0       	rjmp	.+0      	; 0x16a <main+0xba>
 16a:	00 00       	nop
		
		POS_LINEA3(0);

		
		// Muestra los 8 caracteres especiales después del texto
		for (char i = 0; i < 8; i++) {
 16c:	cf 5f       	subi	r28, 0xFF	; 255
 16e:	c8 30       	cpi	r28, 0x08	; 8
 170:	88 f3       	brcs	.-30     	; 0x154 <main+0xa4>
 172:	b1 cf       	rjmp	.-158    	; 0xd6 <main+0x26>

Disassembly of section .text.__dummy_fini:

000007f0 <_fini>:
 7f0:	08 95       	ret

Disassembly of section .text.__dummy_funcs_on_exit:

000007f2 <__funcs_on_exit>:
 7f2:	08 95       	ret

Disassembly of section .text.__dummy_simulator_exit:

000007f4 <__simulator_exit>:
 7f4:	08 95       	ret

Disassembly of section .text.exit:

000007b2 <exit>:
 7b2:	ec 01       	movw	r28, r24
 7b4:	0e 94 f9 03 	call	0x7f2	; 0x7f2 <__funcs_on_exit>
 7b8:	0e 94 f8 03 	call	0x7f0	; 0x7f0 <_fini>
 7bc:	ce 01       	movw	r24, r28
 7be:	0e 94 fa 03 	call	0x7f4	; 0x7f4 <__simulator_exit>
 7c2:	ce 01       	movw	r24, r28
 7c4:	0e 94 f6 03 	call	0x7ec	; 0x7ec <_Exit>

Disassembly of section .text._Exit:

000007ec <_Exit>:
 7ec:	0e 94 56 00 	call	0xac	; 0xac <_exit>
