
LCD_Manejo.elf:     file format elf32-avr

Sections:
Idx Name          Size      VMA       LMA       File off  Algn
  0 .text         000000b0  00000000  00000000  000000d4  2**1
                  CONTENTS, ALLOC, LOAD, READONLY, CODE
  1 .data         00000000  00800060  000000b0  00000dcc  2**0
                  ALLOC
  2 .comment      0000002f  00000000  00000000  00001465  2**0
                  CONTENTS, READONLY
  3 .stack.descriptors.hdr 0000000e  00000000  00000000  00001494  2**0
                  CONTENTS, READONLY
  4 .debug_aranges 000000f0  00000000  00000000  000014a2  2**0
                  CONTENTS, READONLY, DEBUGGING
  5 .debug_info   00005463  00000000  00000000  00001592  2**0
                  CONTENTS, READONLY, DEBUGGING
  6 .debug_abbrev 000007d6  00000000  00000000  000069f5  2**0
                  CONTENTS, READONLY, DEBUGGING
  7 .debug_line   00001b6e  00000000  00000000  000071cb  2**0
                  CONTENTS, READONLY, DEBUGGING
  8 .debug_frame  000001bc  00000000  00000000  00008d3c  2**2
                  CONTENTS, READONLY, DEBUGGING
  9 .debug_str    00000248  00000000  00000000  00008ef8  2**0
                  CONTENTS, READONLY, DEBUGGING
 10 .debug_loc    0000328b  00000000  00000000  00009140  2**0
                  CONTENTS, READONLY, DEBUGGING
 11 .debug_ranges 000000d0  00000000  00000000  0000c3cb  2**0
                  CONTENTS, READONLY, DEBUGGING
 12 .text         00000004  00001364  00001364  00001438  2**1
                  CONTENTS, ALLOC, LOAD, READONLY, CODE
 13 .note.gnu.avr.deviceinfo 0000003c  00000000  00000000  0000c49c  2**2
                  CONTENTS, READONLY, DEBUGGING
 14 .text.ENVIA_CMD 00000066  00001218  00001218  000012ec  2**1
                  CONTENTS, ALLOC, LOAD, READONLY, CODE
 15 .text.LCD_INICIALIZA 00000026  00001310  00001310  000013e4  2**1
                  CONTENTS, ALLOC, LOAD, READONLY, CODE
 16 .text.ENVIA_DATO 00000066  0000127e  0000127e  00001352  2**1
                  CONTENTS, ALLOC, LOAD, READONLY, CODE
 17 .text.ENVIA_CADENA 0000002c  000012e4  000012e4  000013b8  2**1
                  CONTENTS, ALLOC, LOAD, READONLY, CODE
 18 .text.LIMPIA_LCD 00000008  0000134c  0000134c  00001420  2**1
                  CONTENTS, ALLOC, LOAD, READONLY, CODE
 19 .text.POS_LINEA1 00000008  00001354  00001354  00001428  2**1
                  CONTENTS, ALLOC, LOAD, READONLY, CODE
 20 .text.POS_LINEA2 00000008  0000135c  0000135c  00001430  2**1
                  CONTENTS, ALLOC, LOAD, READONLY, CODE
 21 .text.CAR_ESP0 000000a4  00000cf8  00000cf8  00000dcc  2**1
                  CONTENTS, ALLOC, LOAD, READONLY, CODE
 22 .text.CAR_ESP1 000000a4  00000d9c  00000d9c  00000e70  2**1
                  CONTENTS, ALLOC, LOAD, READONLY, CODE
 23 .text.CAR_ESP2 000000a4  00000e40  00000e40  00000f14  2**1
                  CONTENTS, ALLOC, LOAD, READONLY, CODE
 24 .text.CAR_ESP3 000000a4  00000ee4  00000ee4  00000fb8  2**1
                  CONTENTS, ALLOC, LOAD, READONLY, CODE
 25 .text.CAR_ESP4 000000a4  00000f88  00000f88  0000105c  2**1
                  CONTENTS, ALLOC, LOAD, READONLY, CODE
 26 .text.CAR_ESP5 000000a4  0000102c  0000102c  00001100  2**1
                  CONTENTS, ALLOC, LOAD, READONLY, CODE
 27 .text.CAR_ESP6 000000a4  000010d0  000010d0  000011a4  2**1
                  CONTENTS, ALLOC, LOAD, READONLY, CODE
 28 .text.CAR_ESP7 000000a4  00001174  00001174  00001248  2**1
                  CONTENTS, ALLOC, LOAD, READONLY, CODE
 29 .text.main    00000c48  000000b0  000000b0  00000184  2**1
                  CONTENTS, ALLOC, LOAD, READONLY, CODE
 30 .data.mensaje2 00000011  00800060  00001372  00001446  2**0
                  CONTENTS, ALLOC, LOAD, DATA
 31 .data.mensaje 0000000e  00800071  00001383  00001457  2**0
                  CONTENTS, ALLOC, LOAD, DATA
 32 .text.__dummy_fini 00000002  0000136c  0000136c  00001440  2**1
                  CONTENTS, ALLOC, LOAD, READONLY, CODE
 33 .text.__dummy_funcs_on_exit 00000002  0000136e  0000136e  00001442  2**1
                  CONTENTS, ALLOC, LOAD, READONLY, CODE
 34 .text.__dummy_simulator_exit 00000002  00001370  00001370  00001444  2**1
                  CONTENTS, ALLOC, LOAD, READONLY, CODE
 35 .text.exit    00000016  00001336  00001336  0000140a  2**1
                  CONTENTS, ALLOC, LOAD, READONLY, CODE
 36 .text._Exit   00000004  00001368  00001368  0000143c  2**1
                  CONTENTS, ALLOC, LOAD, READONLY, CODE

Disassembly of section .text:

00000000 <__vectors>:
   0:	0c 94 2e 00 	jmp	0x5c	; 0x5c <__ctors_end>
   4:	0c 94 b2 09 	jmp	0x1364	; 0x1364 <__bad_interrupt>
   8:	0c 94 b2 09 	jmp	0x1364	; 0x1364 <__bad_interrupt>
   c:	0c 94 b2 09 	jmp	0x1364	; 0x1364 <__bad_interrupt>
  10:	0c 94 b2 09 	jmp	0x1364	; 0x1364 <__bad_interrupt>
  14:	0c 94 b2 09 	jmp	0x1364	; 0x1364 <__bad_interrupt>
  18:	0c 94 b2 09 	jmp	0x1364	; 0x1364 <__bad_interrupt>
  1c:	0c 94 b2 09 	jmp	0x1364	; 0x1364 <__bad_interrupt>
  20:	0c 94 b2 09 	jmp	0x1364	; 0x1364 <__bad_interrupt>
  24:	0c 94 b2 09 	jmp	0x1364	; 0x1364 <__bad_interrupt>
  28:	0c 94 b2 09 	jmp	0x1364	; 0x1364 <__bad_interrupt>
  2c:	0c 94 b2 09 	jmp	0x1364	; 0x1364 <__bad_interrupt>
  30:	0c 94 b2 09 	jmp	0x1364	; 0x1364 <__bad_interrupt>
  34:	0c 94 b2 09 	jmp	0x1364	; 0x1364 <__bad_interrupt>
  38:	0c 94 b2 09 	jmp	0x1364	; 0x1364 <__bad_interrupt>
  3c:	0c 94 b2 09 	jmp	0x1364	; 0x1364 <__bad_interrupt>
  40:	0c 94 b2 09 	jmp	0x1364	; 0x1364 <__bad_interrupt>
  44:	0c 94 b2 09 	jmp	0x1364	; 0x1364 <__bad_interrupt>
  48:	0c 94 b2 09 	jmp	0x1364	; 0x1364 <__bad_interrupt>
  4c:	0c 94 b2 09 	jmp	0x1364	; 0x1364 <__bad_interrupt>
  50:	0c 94 b2 09 	jmp	0x1364	; 0x1364 <__bad_interrupt>

00000054 <.dinit>:
  54:	00 60       	ori	r16, 0x00	; 0
  56:	00 7f       	andi	r16, 0xF0	; 240
  58:	00 13       	cpse	r16, r16
  5a:	72 00       	.word	0x0072	; ????

0000005c <__ctors_end>:
  5c:	11 24       	eor	r1, r1
  5e:	1f be       	out	0x3f, r1	; 63
  60:	cf e5       	ldi	r28, 0x5F	; 95
  62:	d4 e0       	ldi	r29, 0x04	; 4
  64:	de bf       	out	0x3e, r29	; 62
  66:	cd bf       	out	0x3d, r28	; 61

00000068 <__do_copy_data>:
  68:	e4 e5       	ldi	r30, 0x54	; 84
  6a:	f0 e0       	ldi	r31, 0x00	; 0
  6c:	40 e0       	ldi	r20, 0x00	; 0
  6e:	17 c0       	rjmp	.+46     	; 0x9e <__do_clear_bss+0x8>
  70:	b5 91       	lpm	r27, Z+
  72:	a5 91       	lpm	r26, Z+
  74:	35 91       	lpm	r19, Z+
  76:	25 91       	lpm	r18, Z+
  78:	05 91       	lpm	r16, Z+
  7a:	07 fd       	sbrc	r16, 7
  7c:	0c c0       	rjmp	.+24     	; 0x96 <__do_clear_bss>
  7e:	95 91       	lpm	r25, Z+
  80:	85 91       	lpm	r24, Z+
  82:	ef 01       	movw	r28, r30
  84:	f9 2f       	mov	r31, r25
  86:	e8 2f       	mov	r30, r24
  88:	05 90       	lpm	r0, Z+
  8a:	0d 92       	st	X+, r0
  8c:	a2 17       	cp	r26, r18
  8e:	b3 07       	cpc	r27, r19
  90:	d9 f7       	brne	.-10     	; 0x88 <__do_copy_data+0x20>
  92:	fe 01       	movw	r30, r28
  94:	04 c0       	rjmp	.+8      	; 0x9e <__do_clear_bss+0x8>

00000096 <__do_clear_bss>:
  96:	1d 92       	st	X+, r1
  98:	a2 17       	cp	r26, r18
  9a:	b3 07       	cpc	r27, r19
  9c:	e1 f7       	brne	.-8      	; 0x96 <__do_clear_bss>
  9e:	eb 35       	cpi	r30, 0x5B	; 91
  a0:	f4 07       	cpc	r31, r20
  a2:	31 f7       	brne	.-52     	; 0x70 <__do_copy_data+0x8>
  a4:	0e 94 58 00 	call	0xb0	; 0xb0 <_etext>
  a8:	0c 94 9b 09 	jmp	0x1336	; 0x1336 <exit>

000000ac <_exit>:
  ac:	f8 94       	cli

000000ae <__stop_program>:
  ae:	ff cf       	rjmp	.-2      	; 0xae <__stop_program>

Disassembly of section .text:

00001364 <__bad_interrupt>:
    1364:	0c 94 00 00 	jmp	0	; 0x0 <__TEXT_REGION_ORIGIN__>

Disassembly of section .text.ENVIA_CMD:

00001218 <ENVIA_CMD>:
	ENVIA_CMD(0x18);
}

void REGRESO_CASA(void)
{
	ENVIA_CMD(0x02);
    1218:	98 2f       	mov	r25, r24
    121a:	90 7f       	andi	r25, 0xF0	; 240
    121c:	95 bb       	out	0x15, r25	; 21
    121e:	95 b3       	in	r25, 0x15	; 21
    1220:	9b 7f       	andi	r25, 0xFB	; 251
    1222:	95 bb       	out	0x15, r25	; 21
    1224:	95 b3       	in	r25, 0x15	; 21
    1226:	98 60       	ori	r25, 0x08	; 8
    1228:	95 bb       	out	0x15, r25	; 21
    122a:	e9 ef       	ldi	r30, 0xF9	; 249
    122c:	f0 e0       	ldi	r31, 0x00	; 0
    122e:	31 97       	sbiw	r30, 0x01	; 1
    1230:	f1 f7       	brne	.-4      	; 0x122e <ENVIA_CMD+0x16>
    1232:	00 c0       	rjmp	.+0      	; 0x1234 <ENVIA_CMD+0x1c>
    1234:	00 00       	nop
    1236:	95 b3       	in	r25, 0x15	; 21
    1238:	97 7f       	andi	r25, 0xF7	; 247
    123a:	95 bb       	out	0x15, r25	; 21
    123c:	e3 ec       	ldi	r30, 0xC3	; 195
    123e:	f9 e0       	ldi	r31, 0x09	; 9
    1240:	31 97       	sbiw	r30, 0x01	; 1
    1242:	f1 f7       	brne	.-4      	; 0x1240 <ENVIA_CMD+0x28>
    1244:	00 c0       	rjmp	.+0      	; 0x1246 <ENVIA_CMD+0x2e>
    1246:	00 00       	nop
    1248:	f0 e1       	ldi	r31, 0x10	; 16
    124a:	8f 9f       	mul	r24, r31
    124c:	c0 01       	movw	r24, r0
    124e:	11 24       	eor	r1, r1
    1250:	85 bb       	out	0x15, r24	; 21
    1252:	85 b3       	in	r24, 0x15	; 21
    1254:	8b 7f       	andi	r24, 0xFB	; 251
    1256:	85 bb       	out	0x15, r24	; 21
    1258:	85 b3       	in	r24, 0x15	; 21
    125a:	88 60       	ori	r24, 0x08	; 8
    125c:	85 bb       	out	0x15, r24	; 21
    125e:	89 ef       	ldi	r24, 0xF9	; 249
    1260:	90 e0       	ldi	r25, 0x00	; 0
    1262:	01 97       	sbiw	r24, 0x01	; 1
    1264:	f1 f7       	brne	.-4      	; 0x1262 <ENVIA_CMD+0x4a>
    1266:	00 c0       	rjmp	.+0      	; 0x1268 <ENVIA_CMD+0x50>
    1268:	00 00       	nop
    126a:	85 b3       	in	r24, 0x15	; 21
    126c:	87 7f       	andi	r24, 0xF7	; 247
    126e:	85 bb       	out	0x15, r24	; 21
    1270:	e3 ec       	ldi	r30, 0xC3	; 195
    1272:	f9 e0       	ldi	r31, 0x09	; 9
    1274:	31 97       	sbiw	r30, 0x01	; 1
    1276:	f1 f7       	brne	.-4      	; 0x1274 <ENVIA_CMD+0x5c>
    1278:	00 c0       	rjmp	.+0      	; 0x127a <ENVIA_CMD+0x62>
    127a:	00 00       	nop
    127c:	08 95       	ret

Disassembly of section .text.LCD_INICIALIZA:

00001310 <LCD_INICIALIZA>:
    1310:	82 e0       	ldi	r24, 0x02	; 2
    1312:	0e 94 0c 09 	call	0x1218	; 0x1218 <ENVIA_CMD>
    1316:	88 e2       	ldi	r24, 0x28	; 40
    1318:	0e 94 0c 09 	call	0x1218	; 0x1218 <ENVIA_CMD>
    131c:	8e e0       	ldi	r24, 0x0E	; 14
    131e:	0e 94 0c 09 	call	0x1218	; 0x1218 <ENVIA_CMD>
    1322:	86 e0       	ldi	r24, 0x06	; 6
    1324:	0e 94 0c 09 	call	0x1218	; 0x1218 <ENVIA_CMD>
    1328:	81 e0       	ldi	r24, 0x01	; 1
    132a:	0e 94 0c 09 	call	0x1218	; 0x1218 <ENVIA_CMD>
    132e:	80 e8       	ldi	r24, 0x80	; 128
    1330:	0e 94 0c 09 	call	0x1218	; 0x1218 <ENVIA_CMD>
    1334:	08 95       	ret

Disassembly of section .text.ENVIA_DATO:

0000127e <ENVIA_DATO>:
    127e:	98 2f       	mov	r25, r24
    1280:	90 7f       	andi	r25, 0xF0	; 240
    1282:	95 bb       	out	0x15, r25	; 21
    1284:	95 b3       	in	r25, 0x15	; 21
    1286:	9c 60       	ori	r25, 0x0C	; 12
    1288:	95 bb       	out	0x15, r25	; 21
    128a:	e9 ef       	ldi	r30, 0xF9	; 249
    128c:	f0 e0       	ldi	r31, 0x00	; 0
    128e:	31 97       	sbiw	r30, 0x01	; 1
    1290:	f1 f7       	brne	.-4      	; 0x128e <ENVIA_DATO+0x10>
    1292:	00 c0       	rjmp	.+0      	; 0x1294 <ENVIA_DATO+0x16>
    1294:	00 00       	nop
    1296:	95 b3       	in	r25, 0x15	; 21
    1298:	97 7f       	andi	r25, 0xF7	; 247
    129a:	95 bb       	out	0x15, r25	; 21
    129c:	95 b3       	in	r25, 0x15	; 21
    129e:	9b 7f       	andi	r25, 0xFB	; 251
    12a0:	95 bb       	out	0x15, r25	; 21
    12a2:	e3 ec       	ldi	r30, 0xC3	; 195
    12a4:	f9 e0       	ldi	r31, 0x09	; 9
    12a6:	31 97       	sbiw	r30, 0x01	; 1
    12a8:	f1 f7       	brne	.-4      	; 0x12a6 <ENVIA_DATO+0x28>
    12aa:	00 c0       	rjmp	.+0      	; 0x12ac <ENVIA_DATO+0x2e>
    12ac:	00 00       	nop
    12ae:	f0 e1       	ldi	r31, 0x10	; 16
    12b0:	8f 9f       	mul	r24, r31
    12b2:	c0 01       	movw	r24, r0
    12b4:	11 24       	eor	r1, r1
    12b6:	85 bb       	out	0x15, r24	; 21
    12b8:	85 b3       	in	r24, 0x15	; 21
    12ba:	8c 60       	ori	r24, 0x0C	; 12
    12bc:	85 bb       	out	0x15, r24	; 21
    12be:	89 ef       	ldi	r24, 0xF9	; 249
    12c0:	90 e0       	ldi	r25, 0x00	; 0
    12c2:	01 97       	sbiw	r24, 0x01	; 1
    12c4:	f1 f7       	brne	.-4      	; 0x12c2 <ENVIA_DATO+0x44>
    12c6:	00 c0       	rjmp	.+0      	; 0x12c8 <ENVIA_DATO+0x4a>
    12c8:	00 00       	nop
    12ca:	85 b3       	in	r24, 0x15	; 21
    12cc:	87 7f       	andi	r24, 0xF7	; 247
    12ce:	85 bb       	out	0x15, r24	; 21
    12d0:	85 b3       	in	r24, 0x15	; 21
    12d2:	8b 7f       	andi	r24, 0xFB	; 251
    12d4:	85 bb       	out	0x15, r24	; 21
    12d6:	e3 ec       	ldi	r30, 0xC3	; 195
    12d8:	f9 e0       	ldi	r31, 0x09	; 9
    12da:	31 97       	sbiw	r30, 0x01	; 1
    12dc:	f1 f7       	brne	.-4      	; 0x12da <ENVIA_DATO+0x5c>
    12de:	00 c0       	rjmp	.+0      	; 0x12e0 <ENVIA_DATO+0x62>
    12e0:	00 00       	nop
    12e2:	08 95       	ret

Disassembly of section .text.ENVIA_CADENA:

000012e4 <ENVIA_CADENA>:
    12e4:	0f 93       	push	r16
    12e6:	1f 93       	push	r17
    12e8:	cf 93       	push	r28
    12ea:	df 93       	push	r29
    12ec:	8c 01       	movw	r16, r24
    12ee:	c0 e0       	ldi	r28, 0x00	; 0
    12f0:	d0 e0       	ldi	r29, 0x00	; 0
    12f2:	03 c0       	rjmp	.+6      	; 0x12fa <ENVIA_CADENA+0x16>
    12f4:	0e 94 3f 09 	call	0x127e	; 0x127e <ENVIA_DATO>
    12f8:	21 96       	adiw	r28, 0x01	; 1
    12fa:	f8 01       	movw	r30, r16
    12fc:	ec 0f       	add	r30, r28
    12fe:	fd 1f       	adc	r31, r29
    1300:	80 81       	ld	r24, Z
    1302:	81 11       	cpse	r24, r1
    1304:	f7 cf       	rjmp	.-18     	; 0x12f4 <ENVIA_CADENA+0x10>
    1306:	df 91       	pop	r29
    1308:	cf 91       	pop	r28
    130a:	1f 91       	pop	r17
    130c:	0f 91       	pop	r16
    130e:	08 95       	ret

Disassembly of section .text.LIMPIA_LCD:

0000134c <LIMPIA_LCD>:
    134c:	81 e0       	ldi	r24, 0x01	; 1
    134e:	0e 94 0c 09 	call	0x1218	; 0x1218 <ENVIA_CMD>
    1352:	08 95       	ret

Disassembly of section .text.POS_LINEA1:

00001354 <POS_LINEA1>:

void POS_LINEA1(char posicion)
{
	char linea1 = 0x80;
	posicion = posicion | linea1;
	ENVIA_CMD(posicion);
    1354:	80 68       	ori	r24, 0x80	; 128
    1356:	0e 94 0c 09 	call	0x1218	; 0x1218 <ENVIA_CMD>
    135a:	08 95       	ret

Disassembly of section .text.POS_LINEA2:

0000135c <POS_LINEA2>:

void POS_LINEA2(char posicion)
{
	char linea2 = 0xC0;
	posicion = posicion | linea2;
	ENVIA_CMD(posicion);
    135c:	80 6c       	ori	r24, 0xC0	; 192
    135e:	0e 94 0c 09 	call	0x1218	; 0x1218 <ENVIA_CMD>
    1362:	08 95       	ret

Disassembly of section .text.CAR_ESP0:

00000cf8 <CAR_ESP0>:
	ENVIA_CMD(0x18);
}

void REGRESO_CASA(void)
{
	ENVIA_CMD(0x02);
 cf8:	80 e4       	ldi	r24, 0x40	; 64
 cfa:	0e 94 0c 09 	call	0x1218	; 0x1218 <ENVIA_CMD>
 cfe:	89 ef       	ldi	r24, 0xF9	; 249
 d00:	90 e0       	ldi	r25, 0x00	; 0
 d02:	01 97       	sbiw	r24, 0x01	; 1
 d04:	f1 f7       	brne	.-4      	; 0xd02 <CAR_ESP0+0xa>
 d06:	00 c0       	rjmp	.+0      	; 0xd08 <CAR_ESP0+0x10>
 d08:	00 00       	nop
 d0a:	84 e0       	ldi	r24, 0x04	; 4
 d0c:	0e 94 3f 09 	call	0x127e	; 0x127e <ENVIA_DATO>
 d10:	89 ef       	ldi	r24, 0xF9	; 249
 d12:	90 e0       	ldi	r25, 0x00	; 0
 d14:	01 97       	sbiw	r24, 0x01	; 1
 d16:	f1 f7       	brne	.-4      	; 0xd14 <CAR_ESP0+0x1c>
 d18:	00 c0       	rjmp	.+0      	; 0xd1a <CAR_ESP0+0x22>
 d1a:	00 00       	nop
 d1c:	8e e0       	ldi	r24, 0x0E	; 14
 d1e:	0e 94 3f 09 	call	0x127e	; 0x127e <ENVIA_DATO>
 d22:	89 ef       	ldi	r24, 0xF9	; 249
 d24:	90 e0       	ldi	r25, 0x00	; 0
 d26:	01 97       	sbiw	r24, 0x01	; 1
 d28:	f1 f7       	brne	.-4      	; 0xd26 <CAR_ESP0+0x2e>
 d2a:	00 c0       	rjmp	.+0      	; 0xd2c <CAR_ESP0+0x34>
 d2c:	00 00       	nop
 d2e:	8a e0       	ldi	r24, 0x0A	; 10
 d30:	0e 94 3f 09 	call	0x127e	; 0x127e <ENVIA_DATO>
 d34:	89 ef       	ldi	r24, 0xF9	; 249
 d36:	90 e0       	ldi	r25, 0x00	; 0
 d38:	01 97       	sbiw	r24, 0x01	; 1
 d3a:	f1 f7       	brne	.-4      	; 0xd38 <CAR_ESP0+0x40>
 d3c:	00 c0       	rjmp	.+0      	; 0xd3e <CAR_ESP0+0x46>
 d3e:	00 00       	nop
 d40:	8b e0       	ldi	r24, 0x0B	; 11
 d42:	0e 94 3f 09 	call	0x127e	; 0x127e <ENVIA_DATO>
 d46:	89 ef       	ldi	r24, 0xF9	; 249
 d48:	90 e0       	ldi	r25, 0x00	; 0
 d4a:	01 97       	sbiw	r24, 0x01	; 1
 d4c:	f1 f7       	brne	.-4      	; 0xd4a <CAR_ESP0+0x52>
 d4e:	00 c0       	rjmp	.+0      	; 0xd50 <CAR_ESP0+0x58>
 d50:	00 00       	nop
 d52:	8f e0       	ldi	r24, 0x0F	; 15
 d54:	0e 94 3f 09 	call	0x127e	; 0x127e <ENVIA_DATO>
 d58:	89 ef       	ldi	r24, 0xF9	; 249
 d5a:	90 e0       	ldi	r25, 0x00	; 0
 d5c:	01 97       	sbiw	r24, 0x01	; 1
 d5e:	f1 f7       	brne	.-4      	; 0xd5c <CAR_ESP0+0x64>
 d60:	00 c0       	rjmp	.+0      	; 0xd62 <CAR_ESP0+0x6a>
 d62:	00 00       	nop
 d64:	84 e0       	ldi	r24, 0x04	; 4
 d66:	0e 94 3f 09 	call	0x127e	; 0x127e <ENVIA_DATO>
 d6a:	89 ef       	ldi	r24, 0xF9	; 249
 d6c:	90 e0       	ldi	r25, 0x00	; 0
 d6e:	01 97       	sbiw	r24, 0x01	; 1
 d70:	f1 f7       	brne	.-4      	; 0xd6e <CAR_ESP0+0x76>
 d72:	00 c0       	rjmp	.+0      	; 0xd74 <CAR_ESP0+0x7c>
 d74:	00 00       	nop
 d76:	86 e0       	ldi	r24, 0x06	; 6
 d78:	0e 94 3f 09 	call	0x127e	; 0x127e <ENVIA_DATO>
 d7c:	89 ef       	ldi	r24, 0xF9	; 249
 d7e:	90 e0       	ldi	r25, 0x00	; 0
 d80:	01 97       	sbiw	r24, 0x01	; 1
 d82:	f1 f7       	brne	.-4      	; 0xd80 <CAR_ESP0+0x88>
 d84:	00 c0       	rjmp	.+0      	; 0xd86 <CAR_ESP0+0x8e>
 d86:	00 00       	nop
 d88:	81 e0       	ldi	r24, 0x01	; 1
 d8a:	0e 94 3f 09 	call	0x127e	; 0x127e <ENVIA_DATO>
 d8e:	89 ef       	ldi	r24, 0xF9	; 249
 d90:	90 e0       	ldi	r25, 0x00	; 0
 d92:	01 97       	sbiw	r24, 0x01	; 1
 d94:	f1 f7       	brne	.-4      	; 0xd92 <CAR_ESP0+0x9a>
 d96:	00 c0       	rjmp	.+0      	; 0xd98 <CAR_ESP0+0xa0>
 d98:	00 00       	nop
 d9a:	08 95       	ret

Disassembly of section .text.CAR_ESP1:

00000d9c <CAR_ESP1>:
 d9c:	88 e4       	ldi	r24, 0x48	; 72
 d9e:	0e 94 0c 09 	call	0x1218	; 0x1218 <ENVIA_CMD>
 da2:	89 ef       	ldi	r24, 0xF9	; 249
 da4:	90 e0       	ldi	r25, 0x00	; 0
 da6:	01 97       	sbiw	r24, 0x01	; 1
 da8:	f1 f7       	brne	.-4      	; 0xda6 <CAR_ESP1+0xa>
 daa:	00 c0       	rjmp	.+0      	; 0xdac <CAR_ESP1+0x10>
 dac:	00 00       	nop
 dae:	8e e0       	ldi	r24, 0x0E	; 14
 db0:	0e 94 3f 09 	call	0x127e	; 0x127e <ENVIA_DATO>
 db4:	89 ef       	ldi	r24, 0xF9	; 249
 db6:	90 e0       	ldi	r25, 0x00	; 0
 db8:	01 97       	sbiw	r24, 0x01	; 1
 dba:	f1 f7       	brne	.-4      	; 0xdb8 <CAR_ESP1+0x1c>
 dbc:	00 c0       	rjmp	.+0      	; 0xdbe <CAR_ESP1+0x22>
 dbe:	00 00       	nop
 dc0:	8e e0       	ldi	r24, 0x0E	; 14
 dc2:	0e 94 3f 09 	call	0x127e	; 0x127e <ENVIA_DATO>
 dc6:	89 ef       	ldi	r24, 0xF9	; 249
 dc8:	90 e0       	ldi	r25, 0x00	; 0
 dca:	01 97       	sbiw	r24, 0x01	; 1
 dcc:	f1 f7       	brne	.-4      	; 0xdca <CAR_ESP1+0x2e>
 dce:	00 c0       	rjmp	.+0      	; 0xdd0 <CAR_ESP1+0x34>
 dd0:	00 00       	nop
 dd2:	8e e0       	ldi	r24, 0x0E	; 14
 dd4:	0e 94 3f 09 	call	0x127e	; 0x127e <ENVIA_DATO>
 dd8:	89 ef       	ldi	r24, 0xF9	; 249
 dda:	90 e0       	ldi	r25, 0x00	; 0
 ddc:	01 97       	sbiw	r24, 0x01	; 1
 dde:	f1 f7       	brne	.-4      	; 0xddc <CAR_ESP1+0x40>
 de0:	00 c0       	rjmp	.+0      	; 0xde2 <CAR_ESP1+0x46>
 de2:	00 00       	nop
 de4:	8e e0       	ldi	r24, 0x0E	; 14
 de6:	0e 94 3f 09 	call	0x127e	; 0x127e <ENVIA_DATO>
 dea:	89 ef       	ldi	r24, 0xF9	; 249
 dec:	90 e0       	ldi	r25, 0x00	; 0
 dee:	01 97       	sbiw	r24, 0x01	; 1
 df0:	f1 f7       	brne	.-4      	; 0xdee <CAR_ESP1+0x52>
 df2:	00 c0       	rjmp	.+0      	; 0xdf4 <CAR_ESP1+0x58>
 df4:	00 00       	nop
 df6:	84 e0       	ldi	r24, 0x04	; 4
 df8:	0e 94 3f 09 	call	0x127e	; 0x127e <ENVIA_DATO>
 dfc:	89 ef       	ldi	r24, 0xF9	; 249
 dfe:	90 e0       	ldi	r25, 0x00	; 0
 e00:	01 97       	sbiw	r24, 0x01	; 1
 e02:	f1 f7       	brne	.-4      	; 0xe00 <CAR_ESP1+0x64>
 e04:	00 c0       	rjmp	.+0      	; 0xe06 <CAR_ESP1+0x6a>
 e06:	00 00       	nop
 e08:	8c e1       	ldi	r24, 0x1C	; 28
 e0a:	0e 94 3f 09 	call	0x127e	; 0x127e <ENVIA_DATO>
 e0e:	89 ef       	ldi	r24, 0xF9	; 249
 e10:	90 e0       	ldi	r25, 0x00	; 0
 e12:	01 97       	sbiw	r24, 0x01	; 1
 e14:	f1 f7       	brne	.-4      	; 0xe12 <CAR_ESP1+0x76>
 e16:	00 c0       	rjmp	.+0      	; 0xe18 <CAR_ESP1+0x7c>
 e18:	00 00       	nop
 e1a:	84 e0       	ldi	r24, 0x04	; 4
 e1c:	0e 94 3f 09 	call	0x127e	; 0x127e <ENVIA_DATO>
 e20:	89 ef       	ldi	r24, 0xF9	; 249
 e22:	90 e0       	ldi	r25, 0x00	; 0
 e24:	01 97       	sbiw	r24, 0x01	; 1
 e26:	f1 f7       	brne	.-4      	; 0xe24 <CAR_ESP1+0x88>
 e28:	00 c0       	rjmp	.+0      	; 0xe2a <CAR_ESP1+0x8e>
 e2a:	00 00       	nop
 e2c:	84 e0       	ldi	r24, 0x04	; 4
 e2e:	0e 94 3f 09 	call	0x127e	; 0x127e <ENVIA_DATO>
 e32:	89 ef       	ldi	r24, 0xF9	; 249
 e34:	90 e0       	ldi	r25, 0x00	; 0
 e36:	01 97       	sbiw	r24, 0x01	; 1
 e38:	f1 f7       	brne	.-4      	; 0xe36 <CAR_ESP1+0x9a>
 e3a:	00 c0       	rjmp	.+0      	; 0xe3c <CAR_ESP1+0xa0>
 e3c:	00 00       	nop
 e3e:	08 95       	ret

Disassembly of section .text.CAR_ESP2:

00000e40 <CAR_ESP2>:
 e40:	80 e5       	ldi	r24, 0x50	; 80
 e42:	0e 94 0c 09 	call	0x1218	; 0x1218 <ENVIA_CMD>
 e46:	89 ef       	ldi	r24, 0xF9	; 249
 e48:	90 e0       	ldi	r25, 0x00	; 0
 e4a:	01 97       	sbiw	r24, 0x01	; 1
 e4c:	f1 f7       	brne	.-4      	; 0xe4a <CAR_ESP2+0xa>
 e4e:	00 c0       	rjmp	.+0      	; 0xe50 <CAR_ESP2+0x10>
 e50:	00 00       	nop
 e52:	82 e0       	ldi	r24, 0x02	; 2
 e54:	0e 94 3f 09 	call	0x127e	; 0x127e <ENVIA_DATO>
 e58:	89 ef       	ldi	r24, 0xF9	; 249
 e5a:	90 e0       	ldi	r25, 0x00	; 0
 e5c:	01 97       	sbiw	r24, 0x01	; 1
 e5e:	f1 f7       	brne	.-4      	; 0xe5c <CAR_ESP2+0x1c>
 e60:	00 c0       	rjmp	.+0      	; 0xe62 <CAR_ESP2+0x22>
 e62:	00 00       	nop
 e64:	87 e0       	ldi	r24, 0x07	; 7
 e66:	0e 94 3f 09 	call	0x127e	; 0x127e <ENVIA_DATO>
 e6a:	89 ef       	ldi	r24, 0xF9	; 249
 e6c:	90 e0       	ldi	r25, 0x00	; 0
 e6e:	01 97       	sbiw	r24, 0x01	; 1
 e70:	f1 f7       	brne	.-4      	; 0xe6e <CAR_ESP2+0x2e>
 e72:	00 c0       	rjmp	.+0      	; 0xe74 <CAR_ESP2+0x34>
 e74:	00 00       	nop
 e76:	85 e0       	ldi	r24, 0x05	; 5
 e78:	0e 94 3f 09 	call	0x127e	; 0x127e <ENVIA_DATO>
 e7c:	89 ef       	ldi	r24, 0xF9	; 249
 e7e:	90 e0       	ldi	r25, 0x00	; 0
 e80:	01 97       	sbiw	r24, 0x01	; 1
 e82:	f1 f7       	brne	.-4      	; 0xe80 <CAR_ESP2+0x40>
 e84:	00 c0       	rjmp	.+0      	; 0xe86 <CAR_ESP2+0x46>
 e86:	00 00       	nop
 e88:	8f e1       	ldi	r24, 0x1F	; 31
 e8a:	0e 94 3f 09 	call	0x127e	; 0x127e <ENVIA_DATO>
 e8e:	89 ef       	ldi	r24, 0xF9	; 249
 e90:	90 e0       	ldi	r25, 0x00	; 0
 e92:	01 97       	sbiw	r24, 0x01	; 1
 e94:	f1 f7       	brne	.-4      	; 0xe92 <CAR_ESP2+0x52>
 e96:	00 c0       	rjmp	.+0      	; 0xe98 <CAR_ESP2+0x58>
 e98:	00 00       	nop
 e9a:	8a e1       	ldi	r24, 0x1A	; 26
 e9c:	0e 94 3f 09 	call	0x127e	; 0x127e <ENVIA_DATO>
 ea0:	89 ef       	ldi	r24, 0xF9	; 249
 ea2:	90 e0       	ldi	r25, 0x00	; 0
 ea4:	01 97       	sbiw	r24, 0x01	; 1
 ea6:	f1 f7       	brne	.-4      	; 0xea4 <CAR_ESP2+0x64>
 ea8:	00 c0       	rjmp	.+0      	; 0xeaa <CAR_ESP2+0x6a>
 eaa:	00 00       	nop
 eac:	8e e0       	ldi	r24, 0x0E	; 14
 eae:	0e 94 3f 09 	call	0x127e	; 0x127e <ENVIA_DATO>
 eb2:	89 ef       	ldi	r24, 0xF9	; 249
 eb4:	90 e0       	ldi	r25, 0x00	; 0
 eb6:	01 97       	sbiw	r24, 0x01	; 1
 eb8:	f1 f7       	brne	.-4      	; 0xeb6 <CAR_ESP2+0x76>
 eba:	00 c0       	rjmp	.+0      	; 0xebc <CAR_ESP2+0x7c>
 ebc:	00 00       	nop
 ebe:	82 e0       	ldi	r24, 0x02	; 2
 ec0:	0e 94 3f 09 	call	0x127e	; 0x127e <ENVIA_DATO>
 ec4:	89 ef       	ldi	r24, 0xF9	; 249
 ec6:	90 e0       	ldi	r25, 0x00	; 0
 ec8:	01 97       	sbiw	r24, 0x01	; 1
 eca:	f1 f7       	brne	.-4      	; 0xec8 <CAR_ESP2+0x88>
 ecc:	00 c0       	rjmp	.+0      	; 0xece <CAR_ESP2+0x8e>
 ece:	00 00       	nop
 ed0:	82 e0       	ldi	r24, 0x02	; 2
 ed2:	0e 94 3f 09 	call	0x127e	; 0x127e <ENVIA_DATO>
 ed6:	89 ef       	ldi	r24, 0xF9	; 249
 ed8:	90 e0       	ldi	r25, 0x00	; 0
 eda:	01 97       	sbiw	r24, 0x01	; 1
 edc:	f1 f7       	brne	.-4      	; 0xeda <CAR_ESP2+0x9a>
 ede:	00 c0       	rjmp	.+0      	; 0xee0 <CAR_ESP2+0xa0>
 ee0:	00 00       	nop
 ee2:	08 95       	ret

Disassembly of section .text.CAR_ESP3:

00000ee4 <CAR_ESP3>:
 ee4:	88 e5       	ldi	r24, 0x58	; 88
 ee6:	0e 94 0c 09 	call	0x1218	; 0x1218 <ENVIA_CMD>
 eea:	89 ef       	ldi	r24, 0xF9	; 249
 eec:	90 e0       	ldi	r25, 0x00	; 0
 eee:	01 97       	sbiw	r24, 0x01	; 1
 ef0:	f1 f7       	brne	.-4      	; 0xeee <CAR_ESP3+0xa>
 ef2:	00 c0       	rjmp	.+0      	; 0xef4 <CAR_ESP3+0x10>
 ef4:	00 00       	nop
 ef6:	81 e1       	ldi	r24, 0x11	; 17
 ef8:	0e 94 3f 09 	call	0x127e	; 0x127e <ENVIA_DATO>
 efc:	89 ef       	ldi	r24, 0xF9	; 249
 efe:	90 e0       	ldi	r25, 0x00	; 0
 f00:	01 97       	sbiw	r24, 0x01	; 1
 f02:	f1 f7       	brne	.-4      	; 0xf00 <CAR_ESP3+0x1c>
 f04:	00 c0       	rjmp	.+0      	; 0xf06 <CAR_ESP3+0x22>
 f06:	00 00       	nop
 f08:	8a e0       	ldi	r24, 0x0A	; 10
 f0a:	0e 94 3f 09 	call	0x127e	; 0x127e <ENVIA_DATO>
 f0e:	89 ef       	ldi	r24, 0xF9	; 249
 f10:	90 e0       	ldi	r25, 0x00	; 0
 f12:	01 97       	sbiw	r24, 0x01	; 1
 f14:	f1 f7       	brne	.-4      	; 0xf12 <CAR_ESP3+0x2e>
 f16:	00 c0       	rjmp	.+0      	; 0xf18 <CAR_ESP3+0x34>
 f18:	00 00       	nop
 f1a:	84 e0       	ldi	r24, 0x04	; 4
 f1c:	0e 94 3f 09 	call	0x127e	; 0x127e <ENVIA_DATO>
 f20:	89 ef       	ldi	r24, 0xF9	; 249
 f22:	90 e0       	ldi	r25, 0x00	; 0
 f24:	01 97       	sbiw	r24, 0x01	; 1
 f26:	f1 f7       	brne	.-4      	; 0xf24 <CAR_ESP3+0x40>
 f28:	00 c0       	rjmp	.+0      	; 0xf2a <CAR_ESP3+0x46>
 f2a:	00 00       	nop
 f2c:	8a e0       	ldi	r24, 0x0A	; 10
 f2e:	0e 94 3f 09 	call	0x127e	; 0x127e <ENVIA_DATO>
 f32:	89 ef       	ldi	r24, 0xF9	; 249
 f34:	90 e0       	ldi	r25, 0x00	; 0
 f36:	01 97       	sbiw	r24, 0x01	; 1
 f38:	f1 f7       	brne	.-4      	; 0xf36 <CAR_ESP3+0x52>
 f3a:	00 c0       	rjmp	.+0      	; 0xf3c <CAR_ESP3+0x58>
 f3c:	00 00       	nop
 f3e:	85 e1       	ldi	r24, 0x15	; 21
 f40:	0e 94 3f 09 	call	0x127e	; 0x127e <ENVIA_DATO>
 f44:	89 ef       	ldi	r24, 0xF9	; 249
 f46:	90 e0       	ldi	r25, 0x00	; 0
 f48:	01 97       	sbiw	r24, 0x01	; 1
 f4a:	f1 f7       	brne	.-4      	; 0xf48 <CAR_ESP3+0x64>
 f4c:	00 c0       	rjmp	.+0      	; 0xf4e <CAR_ESP3+0x6a>
 f4e:	00 00       	nop
 f50:	84 e0       	ldi	r24, 0x04	; 4
 f52:	0e 94 3f 09 	call	0x127e	; 0x127e <ENVIA_DATO>
 f56:	89 ef       	ldi	r24, 0xF9	; 249
 f58:	90 e0       	ldi	r25, 0x00	; 0
 f5a:	01 97       	sbiw	r24, 0x01	; 1
 f5c:	f1 f7       	brne	.-4      	; 0xf5a <CAR_ESP3+0x76>
 f5e:	00 c0       	rjmp	.+0      	; 0xf60 <CAR_ESP3+0x7c>
 f60:	00 00       	nop
 f62:	84 e0       	ldi	r24, 0x04	; 4
 f64:	0e 94 3f 09 	call	0x127e	; 0x127e <ENVIA_DATO>
 f68:	89 ef       	ldi	r24, 0xF9	; 249
 f6a:	90 e0       	ldi	r25, 0x00	; 0
 f6c:	01 97       	sbiw	r24, 0x01	; 1
 f6e:	f1 f7       	brne	.-4      	; 0xf6c <CAR_ESP3+0x88>
 f70:	00 c0       	rjmp	.+0      	; 0xf72 <CAR_ESP3+0x8e>
 f72:	00 00       	nop
 f74:	84 e0       	ldi	r24, 0x04	; 4
 f76:	0e 94 3f 09 	call	0x127e	; 0x127e <ENVIA_DATO>
 f7a:	89 ef       	ldi	r24, 0xF9	; 249
 f7c:	90 e0       	ldi	r25, 0x00	; 0
 f7e:	01 97       	sbiw	r24, 0x01	; 1
 f80:	f1 f7       	brne	.-4      	; 0xf7e <CAR_ESP3+0x9a>
 f82:	00 c0       	rjmp	.+0      	; 0xf84 <CAR_ESP3+0xa0>
 f84:	00 00       	nop
 f86:	08 95       	ret

Disassembly of section .text.CAR_ESP4:

00000f88 <CAR_ESP4>:
     f88:	80 e6       	ldi	r24, 0x60	; 96
     f8a:	0e 94 0c 09 	call	0x1218	; 0x1218 <ENVIA_CMD>
     f8e:	89 ef       	ldi	r24, 0xF9	; 249
     f90:	90 e0       	ldi	r25, 0x00	; 0
     f92:	01 97       	sbiw	r24, 0x01	; 1
     f94:	f1 f7       	brne	.-4      	; 0xf92 <CAR_ESP4+0xa>
     f96:	00 c0       	rjmp	.+0      	; 0xf98 <CAR_ESP4+0x10>
     f98:	00 00       	nop
     f9a:	80 e0       	ldi	r24, 0x00	; 0
     f9c:	0e 94 3f 09 	call	0x127e	; 0x127e <ENVIA_DATO>
     fa0:	89 ef       	ldi	r24, 0xF9	; 249
     fa2:	90 e0       	ldi	r25, 0x00	; 0
     fa4:	01 97       	sbiw	r24, 0x01	; 1
     fa6:	f1 f7       	brne	.-4      	; 0xfa4 <CAR_ESP4+0x1c>
     fa8:	00 c0       	rjmp	.+0      	; 0xfaa <CAR_ESP4+0x22>
     faa:	00 00       	nop
     fac:	80 e0       	ldi	r24, 0x00	; 0
     fae:	0e 94 3f 09 	call	0x127e	; 0x127e <ENVIA_DATO>
     fb2:	89 ef       	ldi	r24, 0xF9	; 249
     fb4:	90 e0       	ldi	r25, 0x00	; 0
     fb6:	01 97       	sbiw	r24, 0x01	; 1
     fb8:	f1 f7       	brne	.-4      	; 0xfb6 <CAR_ESP4+0x2e>
     fba:	00 c0       	rjmp	.+0      	; 0xfbc <CAR_ESP4+0x34>
     fbc:	00 00       	nop
     fbe:	80 e0       	ldi	r24, 0x00	; 0
     fc0:	0e 94 3f 09 	call	0x127e	; 0x127e <ENVIA_DATO>
     fc4:	89 ef       	ldi	r24, 0xF9	; 249
     fc6:	90 e0       	ldi	r25, 0x00	; 0
     fc8:	01 97       	sbiw	r24, 0x01	; 1
     fca:	f1 f7       	brne	.-4      	; 0xfc8 <CAR_ESP4+0x40>
     fcc:	00 c0       	rjmp	.+0      	; 0xfce <CAR_ESP4+0x46>
     fce:	00 00       	nop
     fd0:	8c e0       	ldi	r24, 0x0C	; 12
     fd2:	0e 94 3f 09 	call	0x127e	; 0x127e <ENVIA_DATO>
     fd6:	89 ef       	ldi	r24, 0xF9	; 249
     fd8:	90 e0       	ldi	r25, 0x00	; 0
     fda:	01 97       	sbiw	r24, 0x01	; 1
     fdc:	f1 f7       	brne	.-4      	; 0xfda <CAR_ESP4+0x52>
     fde:	00 c0       	rjmp	.+0      	; 0xfe0 <CAR_ESP4+0x58>
     fe0:	00 00       	nop
     fe2:	8c e0       	ldi	r24, 0x0C	; 12
     fe4:	0e 94 3f 09 	call	0x127e	; 0x127e <ENVIA_DATO>
     fe8:	89 ef       	ldi	r24, 0xF9	; 249
     fea:	90 e0       	ldi	r25, 0x00	; 0
     fec:	01 97       	sbiw	r24, 0x01	; 1
     fee:	f1 f7       	brne	.-4      	; 0xfec <CAR_ESP4+0x64>
     ff0:	00 c0       	rjmp	.+0      	; 0xff2 <CAR_ESP4+0x6a>
     ff2:	00 00       	nop
     ff4:	80 e0       	ldi	r24, 0x00	; 0
     ff6:	0e 94 3f 09 	call	0x127e	; 0x127e <ENVIA_DATO>
     ffa:	89 ef       	ldi	r24, 0xF9	; 249
     ffc:	90 e0       	ldi	r25, 0x00	; 0
     ffe:	01 97       	sbiw	r24, 0x01	; 1
    1000:	f1 f7       	brne	.-4      	; 0xffe <CAR_ESP4+0x76>
    1002:	00 c0       	rjmp	.+0      	; 0x1004 <CAR_ESP4+0x7c>
    1004:	00 00       	nop
    1006:	80 e0       	ldi	r24, 0x00	; 0
    1008:	0e 94 3f 09 	call	0x127e	; 0x127e <ENVIA_DATO>
    100c:	89 ef       	ldi	r24, 0xF9	; 249
    100e:	90 e0       	ldi	r25, 0x00	; 0
    1010:	01 97       	sbiw	r24, 0x01	; 1
    1012:	f1 f7       	brne	.-4      	; 0x1010 <CAR_ESP4+0x88>
    1014:	00 c0       	rjmp	.+0      	; 0x1016 <CAR_ESP4+0x8e>
    1016:	00 00       	nop
    1018:	80 e0       	ldi	r24, 0x00	; 0
    101a:	0e 94 3f 09 	call	0x127e	; 0x127e <ENVIA_DATO>
    101e:	89 ef       	ldi	r24, 0xF9	; 249
    1020:	90 e0       	ldi	r25, 0x00	; 0
    1022:	01 97       	sbiw	r24, 0x01	; 1
    1024:	f1 f7       	brne	.-4      	; 0x1022 <CAR_ESP4+0x9a>
    1026:	00 c0       	rjmp	.+0      	; 0x1028 <CAR_ESP4+0xa0>
    1028:	00 00       	nop
    102a:	08 95       	ret

Disassembly of section .text.CAR_ESP5:

0000102c <CAR_ESP5>:
    102c:	88 e6       	ldi	r24, 0x68	; 104
    102e:	0e 94 0c 09 	call	0x1218	; 0x1218 <ENVIA_CMD>
    1032:	89 ef       	ldi	r24, 0xF9	; 249
    1034:	90 e0       	ldi	r25, 0x00	; 0
    1036:	01 97       	sbiw	r24, 0x01	; 1
    1038:	f1 f7       	brne	.-4      	; 0x1036 <CAR_ESP5+0xa>
    103a:	00 c0       	rjmp	.+0      	; 0x103c <CAR_ESP5+0x10>
    103c:	00 00       	nop
    103e:	82 e0       	ldi	r24, 0x02	; 2
    1040:	0e 94 3f 09 	call	0x127e	; 0x127e <ENVIA_DATO>
    1044:	89 ef       	ldi	r24, 0xF9	; 249
    1046:	90 e0       	ldi	r25, 0x00	; 0
    1048:	01 97       	sbiw	r24, 0x01	; 1
    104a:	f1 f7       	brne	.-4      	; 0x1048 <CAR_ESP5+0x1c>
    104c:	00 c0       	rjmp	.+0      	; 0x104e <CAR_ESP5+0x22>
    104e:	00 00       	nop
    1050:	87 e0       	ldi	r24, 0x07	; 7
    1052:	0e 94 3f 09 	call	0x127e	; 0x127e <ENVIA_DATO>
    1056:	89 ef       	ldi	r24, 0xF9	; 249
    1058:	90 e0       	ldi	r25, 0x00	; 0
    105a:	01 97       	sbiw	r24, 0x01	; 1
    105c:	f1 f7       	brne	.-4      	; 0x105a <CAR_ESP5+0x2e>
    105e:	00 c0       	rjmp	.+0      	; 0x1060 <CAR_ESP5+0x34>
    1060:	00 00       	nop
    1062:	85 e0       	ldi	r24, 0x05	; 5
    1064:	0e 94 3f 09 	call	0x127e	; 0x127e <ENVIA_DATO>
    1068:	89 ef       	ldi	r24, 0xF9	; 249
    106a:	90 e0       	ldi	r25, 0x00	; 0
    106c:	01 97       	sbiw	r24, 0x01	; 1
    106e:	f1 f7       	brne	.-4      	; 0x106c <CAR_ESP5+0x40>
    1070:	00 c0       	rjmp	.+0      	; 0x1072 <CAR_ESP5+0x46>
    1072:	00 00       	nop
    1074:	87 e0       	ldi	r24, 0x07	; 7
    1076:	0e 94 3f 09 	call	0x127e	; 0x127e <ENVIA_DATO>
    107a:	89 ef       	ldi	r24, 0xF9	; 249
    107c:	90 e0       	ldi	r25, 0x00	; 0
    107e:	01 97       	sbiw	r24, 0x01	; 1
    1080:	f1 f7       	brne	.-4      	; 0x107e <CAR_ESP5+0x52>
    1082:	00 c0       	rjmp	.+0      	; 0x1084 <CAR_ESP5+0x58>
    1084:	00 00       	nop
    1086:	82 e0       	ldi	r24, 0x02	; 2
    1088:	0e 94 3f 09 	call	0x127e	; 0x127e <ENVIA_DATO>
    108c:	89 ef       	ldi	r24, 0xF9	; 249
    108e:	90 e0       	ldi	r25, 0x00	; 0
    1090:	01 97       	sbiw	r24, 0x01	; 1
    1092:	f1 f7       	brne	.-4      	; 0x1090 <CAR_ESP5+0x64>
    1094:	00 c0       	rjmp	.+0      	; 0x1096 <CAR_ESP5+0x6a>
    1096:	00 00       	nop
    1098:	8e e0       	ldi	r24, 0x0E	; 14
    109a:	0e 94 3f 09 	call	0x127e	; 0x127e <ENVIA_DATO>
    109e:	89 ef       	ldi	r24, 0xF9	; 249
    10a0:	90 e0       	ldi	r25, 0x00	; 0
    10a2:	01 97       	sbiw	r24, 0x01	; 1
    10a4:	f1 f7       	brne	.-4      	; 0x10a2 <CAR_ESP5+0x76>
    10a6:	00 c0       	rjmp	.+0      	; 0x10a8 <CAR_ESP5+0x7c>
    10a8:	00 00       	nop
    10aa:	82 e0       	ldi	r24, 0x02	; 2
    10ac:	0e 94 3f 09 	call	0x127e	; 0x127e <ENVIA_DATO>
    10b0:	89 ef       	ldi	r24, 0xF9	; 249
    10b2:	90 e0       	ldi	r25, 0x00	; 0
    10b4:	01 97       	sbiw	r24, 0x01	; 1
    10b6:	f1 f7       	brne	.-4      	; 0x10b4 <CAR_ESP5+0x88>
    10b8:	00 c0       	rjmp	.+0      	; 0x10ba <CAR_ESP5+0x8e>
    10ba:	00 00       	nop
    10bc:	82 e0       	ldi	r24, 0x02	; 2
    10be:	0e 94 3f 09 	call	0x127e	; 0x127e <ENVIA_DATO>
    10c2:	89 ef       	ldi	r24, 0xF9	; 249
    10c4:	90 e0       	ldi	r25, 0x00	; 0
    10c6:	01 97       	sbiw	r24, 0x01	; 1
    10c8:	f1 f7       	brne	.-4      	; 0x10c6 <CAR_ESP5+0x9a>
    10ca:	00 c0       	rjmp	.+0      	; 0x10cc <CAR_ESP5+0xa0>
    10cc:	00 00       	nop
    10ce:	08 95       	ret

Disassembly of section .text.CAR_ESP6:

000010d0 <CAR_ESP6>:
    10d0:	80 e7       	ldi	r24, 0x70	; 112
    10d2:	0e 94 0c 09 	call	0x1218	; 0x1218 <ENVIA_CMD>
    10d6:	89 ef       	ldi	r24, 0xF9	; 249
    10d8:	90 e0       	ldi	r25, 0x00	; 0
    10da:	01 97       	sbiw	r24, 0x01	; 1
    10dc:	f1 f7       	brne	.-4      	; 0x10da <CAR_ESP6+0xa>
    10de:	00 c0       	rjmp	.+0      	; 0x10e0 <CAR_ESP6+0x10>
    10e0:	00 00       	nop
    10e2:	84 e0       	ldi	r24, 0x04	; 4
    10e4:	0e 94 3f 09 	call	0x127e	; 0x127e <ENVIA_DATO>
    10e8:	89 ef       	ldi	r24, 0xF9	; 249
    10ea:	90 e0       	ldi	r25, 0x00	; 0
    10ec:	01 97       	sbiw	r24, 0x01	; 1
    10ee:	f1 f7       	brne	.-4      	; 0x10ec <CAR_ESP6+0x1c>
    10f0:	00 c0       	rjmp	.+0      	; 0x10f2 <CAR_ESP6+0x22>
    10f2:	00 00       	nop
    10f4:	8e e0       	ldi	r24, 0x0E	; 14
    10f6:	0e 94 3f 09 	call	0x127e	; 0x127e <ENVIA_DATO>
    10fa:	89 ef       	ldi	r24, 0xF9	; 249
    10fc:	90 e0       	ldi	r25, 0x00	; 0
    10fe:	01 97       	sbiw	r24, 0x01	; 1
    1100:	f1 f7       	brne	.-4      	; 0x10fe <CAR_ESP6+0x2e>
    1102:	00 c0       	rjmp	.+0      	; 0x1104 <CAR_ESP6+0x34>
    1104:	00 00       	nop
    1106:	8f e1       	ldi	r24, 0x1F	; 31
    1108:	0e 94 3f 09 	call	0x127e	; 0x127e <ENVIA_DATO>
    110c:	89 ef       	ldi	r24, 0xF9	; 249
    110e:	90 e0       	ldi	r25, 0x00	; 0
    1110:	01 97       	sbiw	r24, 0x01	; 1
    1112:	f1 f7       	brne	.-4      	; 0x1110 <CAR_ESP6+0x40>
    1114:	00 c0       	rjmp	.+0      	; 0x1116 <CAR_ESP6+0x46>
    1116:	00 00       	nop
    1118:	85 e1       	ldi	r24, 0x15	; 21
    111a:	0e 94 3f 09 	call	0x127e	; 0x127e <ENVIA_DATO>
    111e:	89 ef       	ldi	r24, 0xF9	; 249
    1120:	90 e0       	ldi	r25, 0x00	; 0
    1122:	01 97       	sbiw	r24, 0x01	; 1
    1124:	f1 f7       	brne	.-4      	; 0x1122 <CAR_ESP6+0x52>
    1126:	00 c0       	rjmp	.+0      	; 0x1128 <CAR_ESP6+0x58>
    1128:	00 00       	nop
    112a:	8f e1       	ldi	r24, 0x1F	; 31
    112c:	0e 94 3f 09 	call	0x127e	; 0x127e <ENVIA_DATO>
    1130:	89 ef       	ldi	r24, 0xF9	; 249
    1132:	90 e0       	ldi	r25, 0x00	; 0
    1134:	01 97       	sbiw	r24, 0x01	; 1
    1136:	f1 f7       	brne	.-4      	; 0x1134 <CAR_ESP6+0x64>
    1138:	00 c0       	rjmp	.+0      	; 0x113a <CAR_ESP6+0x6a>
    113a:	00 00       	nop
    113c:	8f e1       	ldi	r24, 0x1F	; 31
    113e:	0e 94 3f 09 	call	0x127e	; 0x127e <ENVIA_DATO>
    1142:	89 ef       	ldi	r24, 0xF9	; 249
    1144:	90 e0       	ldi	r25, 0x00	; 0
    1146:	01 97       	sbiw	r24, 0x01	; 1
    1148:	f1 f7       	brne	.-4      	; 0x1146 <CAR_ESP6+0x76>
    114a:	00 c0       	rjmp	.+0      	; 0x114c <CAR_ESP6+0x7c>
    114c:	00 00       	nop
    114e:	8e e0       	ldi	r24, 0x0E	; 14
    1150:	0e 94 3f 09 	call	0x127e	; 0x127e <ENVIA_DATO>
    1154:	89 ef       	ldi	r24, 0xF9	; 249
    1156:	90 e0       	ldi	r25, 0x00	; 0
    1158:	01 97       	sbiw	r24, 0x01	; 1
    115a:	f1 f7       	brne	.-4      	; 0x1158 <CAR_ESP6+0x88>
    115c:	00 c0       	rjmp	.+0      	; 0x115e <CAR_ESP6+0x8e>
    115e:	00 00       	nop
    1160:	84 e0       	ldi	r24, 0x04	; 4
    1162:	0e 94 3f 09 	call	0x127e	; 0x127e <ENVIA_DATO>
    1166:	89 ef       	ldi	r24, 0xF9	; 249
    1168:	90 e0       	ldi	r25, 0x00	; 0
    116a:	01 97       	sbiw	r24, 0x01	; 1
    116c:	f1 f7       	brne	.-4      	; 0x116a <CAR_ESP6+0x9a>
    116e:	00 c0       	rjmp	.+0      	; 0x1170 <CAR_ESP6+0xa0>
    1170:	00 00       	nop
    1172:	08 95       	ret

Disassembly of section .text.CAR_ESP7:

00001174 <CAR_ESP7>:
    1174:	88 e7       	ldi	r24, 0x78	; 120
    1176:	0e 94 0c 09 	call	0x1218	; 0x1218 <ENVIA_CMD>
    117a:	89 ef       	ldi	r24, 0xF9	; 249
    117c:	90 e0       	ldi	r25, 0x00	; 0
    117e:	01 97       	sbiw	r24, 0x01	; 1
    1180:	f1 f7       	brne	.-4      	; 0x117e <CAR_ESP7+0xa>
    1182:	00 c0       	rjmp	.+0      	; 0x1184 <CAR_ESP7+0x10>
    1184:	00 00       	nop
    1186:	82 e0       	ldi	r24, 0x02	; 2
    1188:	0e 94 3f 09 	call	0x127e	; 0x127e <ENVIA_DATO>
    118c:	89 ef       	ldi	r24, 0xF9	; 249
    118e:	90 e0       	ldi	r25, 0x00	; 0
    1190:	01 97       	sbiw	r24, 0x01	; 1
    1192:	f1 f7       	brne	.-4      	; 0x1190 <CAR_ESP7+0x1c>
    1194:	00 c0       	rjmp	.+0      	; 0x1196 <CAR_ESP7+0x22>
    1196:	00 00       	nop
    1198:	85 e0       	ldi	r24, 0x05	; 5
    119a:	0e 94 3f 09 	call	0x127e	; 0x127e <ENVIA_DATO>
    119e:	89 ef       	ldi	r24, 0xF9	; 249
    11a0:	90 e0       	ldi	r25, 0x00	; 0
    11a2:	01 97       	sbiw	r24, 0x01	; 1
    11a4:	f1 f7       	brne	.-4      	; 0x11a2 <CAR_ESP7+0x2e>
    11a6:	00 c0       	rjmp	.+0      	; 0x11a8 <CAR_ESP7+0x34>
    11a8:	00 00       	nop
    11aa:	87 e1       	ldi	r24, 0x17	; 23
    11ac:	0e 94 3f 09 	call	0x127e	; 0x127e <ENVIA_DATO>
    11b0:	89 ef       	ldi	r24, 0xF9	; 249
    11b2:	90 e0       	ldi	r25, 0x00	; 0
    11b4:	01 97       	sbiw	r24, 0x01	; 1
    11b6:	f1 f7       	brne	.-4      	; 0x11b4 <CAR_ESP7+0x40>
    11b8:	00 c0       	rjmp	.+0      	; 0x11ba <CAR_ESP7+0x46>
    11ba:	00 00       	nop
    11bc:	87 e1       	ldi	r24, 0x17	; 23
    11be:	0e 94 3f 09 	call	0x127e	; 0x127e <ENVIA_DATO>
    11c2:	89 ef       	ldi	r24, 0xF9	; 249
    11c4:	90 e0       	ldi	r25, 0x00	; 0
    11c6:	01 97       	sbiw	r24, 0x01	; 1
    11c8:	f1 f7       	brne	.-4      	; 0x11c6 <CAR_ESP7+0x52>
    11ca:	00 c0       	rjmp	.+0      	; 0x11cc <CAR_ESP7+0x58>
    11cc:	00 00       	nop
    11ce:	8e e1       	ldi	r24, 0x1E	; 30
    11d0:	0e 94 3f 09 	call	0x127e	; 0x127e <ENVIA_DATO>
    11d4:	89 ef       	ldi	r24, 0xF9	; 249
    11d6:	90 e0       	ldi	r25, 0x00	; 0
    11d8:	01 97       	sbiw	r24, 0x01	; 1
    11da:	f1 f7       	brne	.-4      	; 0x11d8 <CAR_ESP7+0x64>
    11dc:	00 c0       	rjmp	.+0      	; 0x11de <CAR_ESP7+0x6a>
    11de:	00 00       	nop
    11e0:	82 e0       	ldi	r24, 0x02	; 2
    11e2:	0e 94 3f 09 	call	0x127e	; 0x127e <ENVIA_DATO>
    11e6:	89 ef       	ldi	r24, 0xF9	; 249
    11e8:	90 e0       	ldi	r25, 0x00	; 0
    11ea:	01 97       	sbiw	r24, 0x01	; 1
    11ec:	f1 f7       	brne	.-4      	; 0x11ea <CAR_ESP7+0x76>
    11ee:	00 c0       	rjmp	.+0      	; 0x11f0 <CAR_ESP7+0x7c>
    11f0:	00 00       	nop
    11f2:	82 e0       	ldi	r24, 0x02	; 2
    11f4:	0e 94 3f 09 	call	0x127e	; 0x127e <ENVIA_DATO>
    11f8:	89 ef       	ldi	r24, 0xF9	; 249
    11fa:	90 e0       	ldi	r25, 0x00	; 0
    11fc:	01 97       	sbiw	r24, 0x01	; 1
    11fe:	f1 f7       	brne	.-4      	; 0x11fc <CAR_ESP7+0x88>
    1200:	00 c0       	rjmp	.+0      	; 0x1202 <CAR_ESP7+0x8e>
    1202:	00 00       	nop
    1204:	82 e0       	ldi	r24, 0x02	; 2
    1206:	0e 94 3f 09 	call	0x127e	; 0x127e <ENVIA_DATO>
    120a:	89 ef       	ldi	r24, 0xF9	; 249
    120c:	90 e0       	ldi	r25, 0x00	; 0
    120e:	01 97       	sbiw	r24, 0x01	; 1
    1210:	f1 f7       	brne	.-4      	; 0x120e <CAR_ESP7+0x9a>
    1212:	00 c0       	rjmp	.+0      	; 0x1214 <CAR_ESP7+0xa0>
    1214:	00 00       	nop
    1216:	08 95       	ret

Disassembly of section .text.main:

000000b0 <main>:


int main(void)
{
	// Configura PORTC como salida (todos los pines)
	DDRC = 0xFF;
  b0:	8f ef       	ldi	r24, 0xFF	; 255
  b2:	84 bb       	out	0x14, r24	; 20

	// Inicializa el LCD
	LCD_INICIALIZA();
  b4:	0e 94 88 09 	call	0x1310	; 0x1310 <LCD_INICIALIZA>

	
	// Limpia la pantalla y coloca el cursor en la posición inicial
	LIMPIA_LCD();
  b8:	0e 94 a6 09 	call	0x134c	; 0x134c <LIMPIA_LCD>

	// Escribe un mensaje de bienvenida
	POS_LINEA1(0); // Cursor en línea 1, posición 0
  bc:	80 e0       	ldi	r24, 0x00	; 0
  be:	0e 94 aa 09 	call	0x1354	; 0x1354 <POS_LINEA1>
	ENVIA_CADENA(mensaje);
  c2:	81 e7       	ldi	r24, 0x71	; 113
  c4:	90 e0       	ldi	r25, 0x00	; 0
  c6:	0e 94 72 09 	call	0x12e4	; 0x12e4 <ENVIA_CADENA>
	POS_LINEA2(0); // Cursor en línea 1, posición 0
  ca:	80 e0       	ldi	r24, 0x00	; 0
  cc:	0e 94 ae 09 	call	0x135c	; 0x135c <POS_LINEA2>
	ENVIA_CADENA(mensaje2);
  d0:	80 e6       	ldi	r24, 0x60	; 96
  d2:	90 e0       	ldi	r25, 0x00	; 0
  d4:	0e 94 72 09 	call	0x12e4	; 0x12e4 <ENVIA_CADENA>
	#else
		//round up by default
		__ticks_dc = (uint32_t)(ceil(fabs(__tmp)));
	#endif

	__builtin_avr_delay_cycles(__ticks_dc);
  d8:	8f e4       	ldi	r24, 0x4F	; 79
  da:	93 ec       	ldi	r25, 0xC3	; 195
  dc:	01 97       	sbiw	r24, 0x01	; 1
  de:	f1 f7       	brne	.-4      	; 0xdc <main+0x2c>
  e0:	00 c0       	rjmp	.+0      	; 0xe2 <main+0x32>
  e2:	00 00       	nop
	_delay_ms(200);

	CAR_ESP0();
  e4:	0e 94 7c 06 	call	0xcf8	; 0xcf8 <CAR_ESP0>
	CAR_ESP1();
  e8:	0e 94 ce 06 	call	0xd9c	; 0xd9c <CAR_ESP1>
	CAR_ESP2();
  ec:	0e 94 20 07 	call	0xe40	; 0xe40 <CAR_ESP2>
	CAR_ESP3();
  f0:	0e 94 72 07 	call	0xee4	; 0xee4 <CAR_ESP3>
	CAR_ESP4();
  f4:	0e 94 c4 07 	call	0xf88	; 0xf88 <CAR_ESP4>
	CAR_ESP5();
  f8:	0e 94 16 08 	call	0x102c	; 0x102c <CAR_ESP5>
	CAR_ESP6();
  fc:	0e 94 68 08 	call	0x10d0	; 0x10d0 <CAR_ESP6>
	CAR_ESP7();
 100:	0e 94 ba 08 	call	0x1174	; 0x1174 <CAR_ESP7>

	while (1)
	{
		
				
		LIMPIA_LCD();
 104:	0e 94 a6 09 	call	0x134c	; 0x134c <LIMPIA_LCD>
		
		//GIRASOL1
		POS_LINEA1(0);
 108:	80 e0       	ldi	r24, 0x00	; 0
 10a:	0e 94 aa 09 	call	0x1354	; 0x1354 <POS_LINEA1>
		ENVIA_DATO(3);
 10e:	83 e0       	ldi	r24, 0x03	; 3
 110:	0e 94 3f 09 	call	0x127e	; 0x127e <ENVIA_DATO>
 114:	9f e9       	ldi	r25, 0x9F	; 159
 116:	26 e8       	ldi	r18, 0x86	; 134
 118:	81 e0       	ldi	r24, 0x01	; 1
 11a:	91 50       	subi	r25, 0x01	; 1
 11c:	20 40       	sbci	r18, 0x00	; 0
 11e:	80 40       	sbci	r24, 0x00	; 0
 120:	e1 f7       	brne	.-8      	; 0x11a <main+0x6a>
 122:	00 c0       	rjmp	.+0      	; 0x124 <main+0x74>
 124:	00 00       	nop
		_delay_ms(500);
		
		//GIRASOL2
		POS_LINEA2(0);
 126:	80 e0       	ldi	r24, 0x00	; 0
 128:	0e 94 ae 09 	call	0x135c	; 0x135c <POS_LINEA2>
		ENVIA_DATO(3);
 12c:	83 e0       	ldi	r24, 0x03	; 3
 12e:	0e 94 3f 09 	call	0x127e	; 0x127e <ENVIA_DATO>
 132:	9f e9       	ldi	r25, 0x9F	; 159
 134:	26 e8       	ldi	r18, 0x86	; 134
 136:	81 e0       	ldi	r24, 0x01	; 1
 138:	91 50       	subi	r25, 0x01	; 1
 13a:	20 40       	sbci	r18, 0x00	; 0
 13c:	80 40       	sbci	r24, 0x00	; 0
 13e:	e1 f7       	brne	.-8      	; 0x138 <main+0x88>
 140:	00 c0       	rjmp	.+0      	; 0x142 <main+0x92>
 142:	00 00       	nop
		_delay_ms(500);
		
		//ZOMBI1 SPAM
		POS_LINEA1(15);
 144:	8f e0       	ldi	r24, 0x0F	; 15
 146:	0e 94 aa 09 	call	0x1354	; 0x1354 <POS_LINEA1>
		ENVIA_DATO(5);
 14a:	85 e0       	ldi	r24, 0x05	; 5
 14c:	0e 94 3f 09 	call	0x127e	; 0x127e <ENVIA_DATO>
 150:	9f e9       	ldi	r25, 0x9F	; 159
 152:	26 e8       	ldi	r18, 0x86	; 134
 154:	81 e0       	ldi	r24, 0x01	; 1
 156:	91 50       	subi	r25, 0x01	; 1
 158:	20 40       	sbci	r18, 0x00	; 0
 15a:	80 40       	sbci	r24, 0x00	; 0
 15c:	e1 f7       	brne	.-8      	; 0x156 <main+0xa6>
 15e:	00 c0       	rjmp	.+0      	; 0x160 <main+0xb0>
 160:	00 00       	nop
		_delay_ms(500);
		
		//BORRO ZOMBI1
		POS_LINEA1(15);
 162:	8f e0       	ldi	r24, 0x0F	; 15
 164:	0e 94 aa 09 	call	0x1354	; 0x1354 <POS_LINEA1>
		ENVIA_DATO(' ');  // Escribe espacio para borrar
 168:	80 e2       	ldi	r24, 0x20	; 32
 16a:	0e 94 3f 09 	call	0x127e	; 0x127e <ENVIA_DATO>
 16e:	83 ec       	ldi	r24, 0xC3	; 195
 170:	99 e0       	ldi	r25, 0x09	; 9
 172:	01 97       	sbiw	r24, 0x01	; 1
 174:	f1 f7       	brne	.-4      	; 0x172 <main+0xc2>
 176:	00 c0       	rjmp	.+0      	; 0x178 <main+0xc8>
 178:	00 00       	nop
		_delay_ms(10);
		//ZOMBI P1
		POS_LINEA1(14);
 17a:	8e e0       	ldi	r24, 0x0E	; 14
 17c:	0e 94 aa 09 	call	0x1354	; 0x1354 <POS_LINEA1>
		ENVIA_DATO(5);
 180:	85 e0       	ldi	r24, 0x05	; 5
 182:	0e 94 3f 09 	call	0x127e	; 0x127e <ENVIA_DATO>
 186:	9f e9       	ldi	r25, 0x9F	; 159
 188:	26 e8       	ldi	r18, 0x86	; 134
 18a:	81 e0       	ldi	r24, 0x01	; 1
 18c:	91 50       	subi	r25, 0x01	; 1
 18e:	20 40       	sbci	r18, 0x00	; 0
 190:	80 40       	sbci	r24, 0x00	; 0
 192:	e1 f7       	brne	.-8      	; 0x18c <main+0xdc>
 194:	00 c0       	rjmp	.+0      	; 0x196 <main+0xe6>
 196:	00 00       	nop
		_delay_ms(500);
		
		//BORRO ZOMBI P1
		POS_LINEA1(14);
 198:	8e e0       	ldi	r24, 0x0E	; 14
 19a:	0e 94 aa 09 	call	0x1354	; 0x1354 <POS_LINEA1>
		ENVIA_DATO(' ');  
 19e:	80 e2       	ldi	r24, 0x20	; 32
 1a0:	0e 94 3f 09 	call	0x127e	; 0x127e <ENVIA_DATO>
 1a4:	83 ec       	ldi	r24, 0xC3	; 195
 1a6:	99 e0       	ldi	r25, 0x09	; 9
 1a8:	01 97       	sbiw	r24, 0x01	; 1
 1aa:	f1 f7       	brne	.-4      	; 0x1a8 <main+0xf8>
 1ac:	00 c0       	rjmp	.+0      	; 0x1ae <main+0xfe>
 1ae:	00 00       	nop
		_delay_ms(10);
		//ZOMBI1 P2
		POS_LINEA1(13);
 1b0:	8d e0       	ldi	r24, 0x0D	; 13
 1b2:	0e 94 aa 09 	call	0x1354	; 0x1354 <POS_LINEA1>
		ENVIA_DATO(5);
 1b6:	85 e0       	ldi	r24, 0x05	; 5
 1b8:	0e 94 3f 09 	call	0x127e	; 0x127e <ENVIA_DATO>
 1bc:	9f e9       	ldi	r25, 0x9F	; 159
 1be:	26 e8       	ldi	r18, 0x86	; 134
 1c0:	81 e0       	ldi	r24, 0x01	; 1
 1c2:	91 50       	subi	r25, 0x01	; 1
 1c4:	20 40       	sbci	r18, 0x00	; 0
 1c6:	80 40       	sbci	r24, 0x00	; 0
 1c8:	e1 f7       	brne	.-8      	; 0x1c2 <main+0x112>
 1ca:	00 c0       	rjmp	.+0      	; 0x1cc <main+0x11c>
 1cc:	00 00       	nop
		_delay_ms(500);
		
		//PONGO PLANTA
		POS_LINEA1(1);
 1ce:	81 e0       	ldi	r24, 0x01	; 1
 1d0:	0e 94 aa 09 	call	0x1354	; 0x1354 <POS_LINEA1>
		ENVIA_DATO(0);
 1d4:	80 e0       	ldi	r24, 0x00	; 0
 1d6:	0e 94 3f 09 	call	0x127e	; 0x127e <ENVIA_DATO>
		//BORRO ZOMBI1 P2
		POS_LINEA1(13);
 1da:	8d e0       	ldi	r24, 0x0D	; 13
 1dc:	0e 94 aa 09 	call	0x1354	; 0x1354 <POS_LINEA1>
		ENVIA_DATO(' ');
 1e0:	80 e2       	ldi	r24, 0x20	; 32
 1e2:	0e 94 3f 09 	call	0x127e	; 0x127e <ENVIA_DATO>
 1e6:	83 ec       	ldi	r24, 0xC3	; 195
 1e8:	99 e0       	ldi	r25, 0x09	; 9
 1ea:	01 97       	sbiw	r24, 0x01	; 1
 1ec:	f1 f7       	brne	.-4      	; 0x1ea <main+0x13a>
 1ee:	00 c0       	rjmp	.+0      	; 0x1f0 <main+0x140>
 1f0:	00 00       	nop
		_delay_ms(10);
		//ZOMBI1 P3
		POS_LINEA1(12);
 1f2:	8c e0       	ldi	r24, 0x0C	; 12
 1f4:	0e 94 aa 09 	call	0x1354	; 0x1354 <POS_LINEA1>
		ENVIA_DATO(5);
 1f8:	85 e0       	ldi	r24, 0x05	; 5
 1fa:	0e 94 3f 09 	call	0x127e	; 0x127e <ENVIA_DATO>
 1fe:	9f e9       	ldi	r25, 0x9F	; 159
 200:	26 e8       	ldi	r18, 0x86	; 134
 202:	81 e0       	ldi	r24, 0x01	; 1
 204:	91 50       	subi	r25, 0x01	; 1
 206:	20 40       	sbci	r18, 0x00	; 0
 208:	80 40       	sbci	r24, 0x00	; 0
 20a:	e1 f7       	brne	.-8      	; 0x204 <__EEPROM_REGION_LENGTH__+0x4>
 20c:	00 c0       	rjmp	.+0      	; 0x20e <__EEPROM_REGION_LENGTH__+0xe>
 20e:	00 00       	nop
		_delay_ms(500);
				
		//DISPARO 1
		POS_LINEA1(2);
 210:	82 e0       	ldi	r24, 0x02	; 2
 212:	0e 94 aa 09 	call	0x1354	; 0x1354 <POS_LINEA1>
		ENVIA_DATO(4);
 216:	84 e0       	ldi	r24, 0x04	; 4
 218:	0e 94 3f 09 	call	0x127e	; 0x127e <ENVIA_DATO>
		//BORRO ZOMBI1 P3
		POS_LINEA1(12);
 21c:	8c e0       	ldi	r24, 0x0C	; 12
 21e:	0e 94 aa 09 	call	0x1354	; 0x1354 <POS_LINEA1>
		ENVIA_DATO(' ');
 222:	80 e2       	ldi	r24, 0x20	; 32
 224:	0e 94 3f 09 	call	0x127e	; 0x127e <ENVIA_DATO>
 228:	83 ec       	ldi	r24, 0xC3	; 195
 22a:	99 e0       	ldi	r25, 0x09	; 9
 22c:	01 97       	sbiw	r24, 0x01	; 1
 22e:	f1 f7       	brne	.-4      	; 0x22c <__EEPROM_REGION_LENGTH__+0x2c>
 230:	00 c0       	rjmp	.+0      	; 0x232 <__EEPROM_REGION_LENGTH__+0x32>
 232:	00 00       	nop
		_delay_ms(10);
		//ZOMBI1 P4
		POS_LINEA1(11);
 234:	8b e0       	ldi	r24, 0x0B	; 11
 236:	0e 94 aa 09 	call	0x1354	; 0x1354 <POS_LINEA1>
		ENVIA_DATO(5);
 23a:	85 e0       	ldi	r24, 0x05	; 5
 23c:	0e 94 3f 09 	call	0x127e	; 0x127e <ENVIA_DATO>
 240:	9f e9       	ldi	r25, 0x9F	; 159
 242:	26 e8       	ldi	r18, 0x86	; 134
 244:	81 e0       	ldi	r24, 0x01	; 1
 246:	91 50       	subi	r25, 0x01	; 1
 248:	20 40       	sbci	r18, 0x00	; 0
 24a:	80 40       	sbci	r24, 0x00	; 0
 24c:	e1 f7       	brne	.-8      	; 0x246 <__EEPROM_REGION_LENGTH__+0x46>
 24e:	00 c0       	rjmp	.+0      	; 0x250 <__EEPROM_REGION_LENGTH__+0x50>
 250:	00 00       	nop
		_delay_ms(500);
		
		//BORRO DISPARO1
		POS_LINEA1(2);
 252:	82 e0       	ldi	r24, 0x02	; 2
 254:	0e 94 aa 09 	call	0x1354	; 0x1354 <POS_LINEA1>
		ENVIA_DATO(' ');
 258:	80 e2       	ldi	r24, 0x20	; 32
 25a:	0e 94 3f 09 	call	0x127e	; 0x127e <ENVIA_DATO>
 25e:	83 ec       	ldi	r24, 0xC3	; 195
 260:	99 e0       	ldi	r25, 0x09	; 9
 262:	01 97       	sbiw	r24, 0x01	; 1
 264:	f1 f7       	brne	.-4      	; 0x262 <__EEPROM_REGION_LENGTH__+0x62>
 266:	00 c0       	rjmp	.+0      	; 0x268 <__EEPROM_REGION_LENGTH__+0x68>
 268:	00 00       	nop
		_delay_ms(10);
		//DISPARO 2
		POS_LINEA1(3);
 26a:	83 e0       	ldi	r24, 0x03	; 3
 26c:	0e 94 aa 09 	call	0x1354	; 0x1354 <POS_LINEA1>
		ENVIA_DATO(4);
 270:	84 e0       	ldi	r24, 0x04	; 4
 272:	0e 94 3f 09 	call	0x127e	; 0x127e <ENVIA_DATO>
		//BORRO ZOMBI1 P4
		POS_LINEA1(11);
 276:	8b e0       	ldi	r24, 0x0B	; 11
 278:	0e 94 aa 09 	call	0x1354	; 0x1354 <POS_LINEA1>
		ENVIA_DATO(' ');
 27c:	80 e2       	ldi	r24, 0x20	; 32
 27e:	0e 94 3f 09 	call	0x127e	; 0x127e <ENVIA_DATO>
 282:	83 ec       	ldi	r24, 0xC3	; 195
 284:	99 e0       	ldi	r25, 0x09	; 9
 286:	01 97       	sbiw	r24, 0x01	; 1
 288:	f1 f7       	brne	.-4      	; 0x286 <__EEPROM_REGION_LENGTH__+0x86>
 28a:	00 c0       	rjmp	.+0      	; 0x28c <__EEPROM_REGION_LENGTH__+0x8c>
 28c:	00 00       	nop
		_delay_ms(10);
		//ZOMBI1 P5
		POS_LINEA1(10);
 28e:	8a e0       	ldi	r24, 0x0A	; 10
 290:	0e 94 aa 09 	call	0x1354	; 0x1354 <POS_LINEA1>
		ENVIA_DATO(5);
 294:	85 e0       	ldi	r24, 0x05	; 5
 296:	0e 94 3f 09 	call	0x127e	; 0x127e <ENVIA_DATO>
 29a:	9f e9       	ldi	r25, 0x9F	; 159
 29c:	26 e8       	ldi	r18, 0x86	; 134
 29e:	81 e0       	ldi	r24, 0x01	; 1
 2a0:	91 50       	subi	r25, 0x01	; 1
 2a2:	20 40       	sbci	r18, 0x00	; 0
 2a4:	80 40       	sbci	r24, 0x00	; 0
 2a6:	e1 f7       	brne	.-8      	; 0x2a0 <__EEPROM_REGION_LENGTH__+0xa0>
 2a8:	00 c0       	rjmp	.+0      	; 0x2aa <__EEPROM_REGION_LENGTH__+0xaa>
 2aa:	00 00       	nop
		_delay_ms(500);
		
		
		//BORRO DISPARO2
		POS_LINEA1(3);
 2ac:	83 e0       	ldi	r24, 0x03	; 3
 2ae:	0e 94 aa 09 	call	0x1354	; 0x1354 <POS_LINEA1>
		ENVIA_DATO(' ');
 2b2:	80 e2       	ldi	r24, 0x20	; 32
 2b4:	0e 94 3f 09 	call	0x127e	; 0x127e <ENVIA_DATO>
 2b8:	83 ec       	ldi	r24, 0xC3	; 195
 2ba:	99 e0       	ldi	r25, 0x09	; 9
 2bc:	01 97       	sbiw	r24, 0x01	; 1
 2be:	f1 f7       	brne	.-4      	; 0x2bc <__EEPROM_REGION_LENGTH__+0xbc>
 2c0:	00 c0       	rjmp	.+0      	; 0x2c2 <__EEPROM_REGION_LENGTH__+0xc2>
 2c2:	00 00       	nop
		_delay_ms(10);
		//DISPARO 3
		POS_LINEA1(4);
 2c4:	84 e0       	ldi	r24, 0x04	; 4
 2c6:	0e 94 aa 09 	call	0x1354	; 0x1354 <POS_LINEA1>
		ENVIA_DATO(4);
 2ca:	84 e0       	ldi	r24, 0x04	; 4
 2cc:	0e 94 3f 09 	call	0x127e	; 0x127e <ENVIA_DATO>
		//BORRO ZOMBI1 P4
		POS_LINEA1(10);
 2d0:	8a e0       	ldi	r24, 0x0A	; 10
 2d2:	0e 94 aa 09 	call	0x1354	; 0x1354 <POS_LINEA1>
		ENVIA_DATO(' ');
 2d6:	80 e2       	ldi	r24, 0x20	; 32
 2d8:	0e 94 3f 09 	call	0x127e	; 0x127e <ENVIA_DATO>
 2dc:	83 ec       	ldi	r24, 0xC3	; 195
 2de:	99 e0       	ldi	r25, 0x09	; 9
 2e0:	01 97       	sbiw	r24, 0x01	; 1
 2e2:	f1 f7       	brne	.-4      	; 0x2e0 <__EEPROM_REGION_LENGTH__+0xe0>
 2e4:	00 c0       	rjmp	.+0      	; 0x2e6 <__EEPROM_REGION_LENGTH__+0xe6>
 2e6:	00 00       	nop
		_delay_ms(10);
		//ZOMBI2 P1
		POS_LINEA2(15);
 2e8:	8f e0       	ldi	r24, 0x0F	; 15
 2ea:	0e 94 ae 09 	call	0x135c	; 0x135c <POS_LINEA2>
		ENVIA_DATO(7);
 2ee:	87 e0       	ldi	r24, 0x07	; 7
 2f0:	0e 94 3f 09 	call	0x127e	; 0x127e <ENVIA_DATO>
		//ZOMBI P6
		POS_LINEA1(9);
 2f4:	89 e0       	ldi	r24, 0x09	; 9
 2f6:	0e 94 aa 09 	call	0x1354	; 0x1354 <POS_LINEA1>
		ENVIA_DATO(5);
 2fa:	85 e0       	ldi	r24, 0x05	; 5
 2fc:	0e 94 3f 09 	call	0x127e	; 0x127e <ENVIA_DATO>
 300:	9f e9       	ldi	r25, 0x9F	; 159
 302:	26 e8       	ldi	r18, 0x86	; 134
 304:	81 e0       	ldi	r24, 0x01	; 1
 306:	91 50       	subi	r25, 0x01	; 1
 308:	20 40       	sbci	r18, 0x00	; 0
 30a:	80 40       	sbci	r24, 0x00	; 0
 30c:	e1 f7       	brne	.-8      	; 0x306 <__EEPROM_REGION_LENGTH__+0x106>
 30e:	00 c0       	rjmp	.+0      	; 0x310 <__EEPROM_REGION_LENGTH__+0x110>
 310:	00 00       	nop
		_delay_ms(500);
				
		
		//BORRO DISPARO3
		POS_LINEA1(4);
 312:	84 e0       	ldi	r24, 0x04	; 4
 314:	0e 94 aa 09 	call	0x1354	; 0x1354 <POS_LINEA1>
		ENVIA_DATO(' ');
 318:	80 e2       	ldi	r24, 0x20	; 32
 31a:	0e 94 3f 09 	call	0x127e	; 0x127e <ENVIA_DATO>
 31e:	83 ec       	ldi	r24, 0xC3	; 195
 320:	99 e0       	ldi	r25, 0x09	; 9
 322:	01 97       	sbiw	r24, 0x01	; 1
 324:	f1 f7       	brne	.-4      	; 0x322 <__EEPROM_REGION_LENGTH__+0x122>
 326:	00 c0       	rjmp	.+0      	; 0x328 <__EEPROM_REGION_LENGTH__+0x128>
 328:	00 00       	nop
		_delay_ms(10);
		//DISPARO4
		POS_LINEA1(5);
 32a:	85 e0       	ldi	r24, 0x05	; 5
 32c:	0e 94 aa 09 	call	0x1354	; 0x1354 <POS_LINEA1>
		ENVIA_DATO(4);
 330:	84 e0       	ldi	r24, 0x04	; 4
 332:	0e 94 3f 09 	call	0x127e	; 0x127e <ENVIA_DATO>
		//BORRO ZOMBI P2
		POS_LINEA1(9);
 336:	89 e0       	ldi	r24, 0x09	; 9
 338:	0e 94 aa 09 	call	0x1354	; 0x1354 <POS_LINEA1>
		ENVIA_DATO(' ');
 33c:	80 e2       	ldi	r24, 0x20	; 32
 33e:	0e 94 3f 09 	call	0x127e	; 0x127e <ENVIA_DATO>
 342:	83 ec       	ldi	r24, 0xC3	; 195
 344:	99 e0       	ldi	r25, 0x09	; 9
 346:	01 97       	sbiw	r24, 0x01	; 1
 348:	f1 f7       	brne	.-4      	; 0x346 <__EEPROM_REGION_LENGTH__+0x146>
 34a:	00 c0       	rjmp	.+0      	; 0x34c <__EEPROM_REGION_LENGTH__+0x14c>
 34c:	00 00       	nop
		_delay_ms(10);
		//BORRO ZOMBI2 P2
		POS_LINEA2(15);
 34e:	8f e0       	ldi	r24, 0x0F	; 15
 350:	0e 94 ae 09 	call	0x135c	; 0x135c <POS_LINEA2>
		ENVIA_DATO(' ');
 354:	80 e2       	ldi	r24, 0x20	; 32
 356:	0e 94 3f 09 	call	0x127e	; 0x127e <ENVIA_DATO>
 35a:	83 ec       	ldi	r24, 0xC3	; 195
 35c:	99 e0       	ldi	r25, 0x09	; 9
 35e:	01 97       	sbiw	r24, 0x01	; 1
 360:	f1 f7       	brne	.-4      	; 0x35e <__EEPROM_REGION_LENGTH__+0x15e>
 362:	00 c0       	rjmp	.+0      	; 0x364 <__EEPROM_REGION_LENGTH__+0x164>
 364:	00 00       	nop
		_delay_ms(10);
		//ZOMBI P3
		POS_LINEA1(8);
 366:	88 e0       	ldi	r24, 0x08	; 8
 368:	0e 94 aa 09 	call	0x1354	; 0x1354 <POS_LINEA1>
		ENVIA_DATO(5);
 36c:	85 e0       	ldi	r24, 0x05	; 5
 36e:	0e 94 3f 09 	call	0x127e	; 0x127e <ENVIA_DATO>
		//ZOMBI2 P1
		POS_LINEA2(14);
 372:	8e e0       	ldi	r24, 0x0E	; 14
 374:	0e 94 ae 09 	call	0x135c	; 0x135c <POS_LINEA2>
		ENVIA_DATO(7);		
 378:	87 e0       	ldi	r24, 0x07	; 7
 37a:	0e 94 3f 09 	call	0x127e	; 0x127e <ENVIA_DATO>
 37e:	9f e9       	ldi	r25, 0x9F	; 159
 380:	26 e8       	ldi	r18, 0x86	; 134
 382:	81 e0       	ldi	r24, 0x01	; 1
 384:	91 50       	subi	r25, 0x01	; 1
 386:	20 40       	sbci	r18, 0x00	; 0
 388:	80 40       	sbci	r24, 0x00	; 0
 38a:	e1 f7       	brne	.-8      	; 0x384 <__EEPROM_REGION_LENGTH__+0x184>
 38c:	00 c0       	rjmp	.+0      	; 0x38e <__EEPROM_REGION_LENGTH__+0x18e>
 38e:	00 00       	nop
		//BORRO ZOMBI2 P2
		_delay_ms(500);
		
		
		//PONGO PLANTA2
		POS_LINEA2(1);
 390:	81 e0       	ldi	r24, 0x01	; 1
 392:	0e 94 ae 09 	call	0x135c	; 0x135c <POS_LINEA2>
		ENVIA_DATO(0);
 396:	80 e0       	ldi	r24, 0x00	; 0
 398:	0e 94 3f 09 	call	0x127e	; 0x127e <ENVIA_DATO>
		//BORRO ZOMBI P4
		POS_LINEA1(8);
 39c:	88 e0       	ldi	r24, 0x08	; 8
 39e:	0e 94 aa 09 	call	0x1354	; 0x1354 <POS_LINEA1>
		ENVIA_DATO(' ');
 3a2:	80 e2       	ldi	r24, 0x20	; 32
 3a4:	0e 94 3f 09 	call	0x127e	; 0x127e <ENVIA_DATO>
 3a8:	83 ec       	ldi	r24, 0xC3	; 195
 3aa:	99 e0       	ldi	r25, 0x09	; 9
 3ac:	01 97       	sbiw	r24, 0x01	; 1
 3ae:	f1 f7       	brne	.-4      	; 0x3ac <__EEPROM_REGION_LENGTH__+0x1ac>
 3b0:	00 c0       	rjmp	.+0      	; 0x3b2 <__EEPROM_REGION_LENGTH__+0x1b2>
 3b2:	00 00       	nop
		_delay_ms(10);
		//MUEVO ZOMBI1 P4
		POS_LINEA1(7);
 3b4:	87 e0       	ldi	r24, 0x07	; 7
 3b6:	0e 94 aa 09 	call	0x1354	; 0x1354 <POS_LINEA1>
		ENVIA_DATO(5);	
 3ba:	85 e0       	ldi	r24, 0x05	; 5
 3bc:	0e 94 3f 09 	call	0x127e	; 0x127e <ENVIA_DATO>
		//BORRO DISPARO4
		POS_LINEA1(5);
 3c0:	85 e0       	ldi	r24, 0x05	; 5
 3c2:	0e 94 aa 09 	call	0x1354	; 0x1354 <POS_LINEA1>
		ENVIA_DATO(' ');
 3c6:	80 e2       	ldi	r24, 0x20	; 32
 3c8:	0e 94 3f 09 	call	0x127e	; 0x127e <ENVIA_DATO>
 3cc:	83 ec       	ldi	r24, 0xC3	; 195
 3ce:	99 e0       	ldi	r25, 0x09	; 9
 3d0:	01 97       	sbiw	r24, 0x01	; 1
 3d2:	f1 f7       	brne	.-4      	; 0x3d0 <__EEPROM_REGION_LENGTH__+0x1d0>
 3d4:	00 c0       	rjmp	.+0      	; 0x3d6 <__EEPROM_REGION_LENGTH__+0x1d6>
 3d6:	00 00       	nop
		_delay_ms(10);
		//DISPARO 5
		POS_LINEA1(6);
 3d8:	86 e0       	ldi	r24, 0x06	; 6
 3da:	0e 94 aa 09 	call	0x1354	; 0x1354 <POS_LINEA1>
		ENVIA_DATO(4);
 3de:	84 e0       	ldi	r24, 0x04	; 4
 3e0:	0e 94 3f 09 	call	0x127e	; 0x127e <ENVIA_DATO>
		//BORRO ZOMBI P4
		POS_LINEA2(14);
 3e4:	8e e0       	ldi	r24, 0x0E	; 14
 3e6:	0e 94 ae 09 	call	0x135c	; 0x135c <POS_LINEA2>
		ENVIA_DATO(' ');
 3ea:	80 e2       	ldi	r24, 0x20	; 32
 3ec:	0e 94 3f 09 	call	0x127e	; 0x127e <ENVIA_DATO>
 3f0:	83 ec       	ldi	r24, 0xC3	; 195
 3f2:	99 e0       	ldi	r25, 0x09	; 9
 3f4:	01 97       	sbiw	r24, 0x01	; 1
 3f6:	f1 f7       	brne	.-4      	; 0x3f4 <__EEPROM_REGION_LENGTH__+0x1f4>
 3f8:	00 c0       	rjmp	.+0      	; 0x3fa <__EEPROM_REGION_LENGTH__+0x1fa>
 3fa:	00 00       	nop
		_delay_ms(10);
		//ZOMBI2 P3
		POS_LINEA2(13);
 3fc:	8d e0       	ldi	r24, 0x0D	; 13
 3fe:	0e 94 ae 09 	call	0x135c	; 0x135c <POS_LINEA2>
		ENVIA_DATO(7);
 402:	87 e0       	ldi	r24, 0x07	; 7
 404:	0e 94 3f 09 	call	0x127e	; 0x127e <ENVIA_DATO>
 408:	9f e9       	ldi	r25, 0x9F	; 159
 40a:	26 e8       	ldi	r18, 0x86	; 134
 40c:	81 e0       	ldi	r24, 0x01	; 1
 40e:	91 50       	subi	r25, 0x01	; 1
 410:	20 40       	sbci	r18, 0x00	; 0
 412:	80 40       	sbci	r24, 0x00	; 0
 414:	e1 f7       	brne	.-8      	; 0x40e <__DATA_REGION_LENGTH__+0xe>
 416:	00 c0       	rjmp	.+0      	; 0x418 <__DATA_REGION_LENGTH__+0x18>
 418:	00 00       	nop
		_delay_ms(500);
		
		//ZOMBI1 Golpeado
		POS_LINEA1(6);
 41a:	86 e0       	ldi	r24, 0x06	; 6
 41c:	0e 94 aa 09 	call	0x1354	; 0x1354 <POS_LINEA1>
		ENVIA_DATO(2);
 420:	82 e0       	ldi	r24, 0x02	; 2
 422:	0e 94 3f 09 	call	0x127e	; 0x127e <ENVIA_DATO>
		//BORRAR ZOMBI1
		POS_LINEA1(7);
 426:	87 e0       	ldi	r24, 0x07	; 7
 428:	0e 94 aa 09 	call	0x1354	; 0x1354 <POS_LINEA1>
		ENVIA_DATO(' ');
 42c:	80 e2       	ldi	r24, 0x20	; 32
 42e:	0e 94 3f 09 	call	0x127e	; 0x127e <ENVIA_DATO>
 432:	83 ec       	ldi	r24, 0xC3	; 195
 434:	99 e0       	ldi	r25, 0x09	; 9
 436:	01 97       	sbiw	r24, 0x01	; 1
 438:	f1 f7       	brne	.-4      	; 0x436 <__DATA_REGION_LENGTH__+0x36>
 43a:	00 c0       	rjmp	.+0      	; 0x43c <__DATA_REGION_LENGTH__+0x3c>
 43c:	00 00       	nop
		_delay_ms(10);
		//DISPARO PLANTA2
		POS_LINEA2(2);
 43e:	82 e0       	ldi	r24, 0x02	; 2
 440:	0e 94 ae 09 	call	0x135c	; 0x135c <POS_LINEA2>
		ENVIA_DATO(4);
 444:	84 e0       	ldi	r24, 0x04	; 4
 446:	0e 94 3f 09 	call	0x127e	; 0x127e <ENVIA_DATO>
		//BORRAMOS ZOMBI 2 (13)
		POS_LINEA2(13);
 44a:	8d e0       	ldi	r24, 0x0D	; 13
 44c:	0e 94 ae 09 	call	0x135c	; 0x135c <POS_LINEA2>
		ENVIA_DATO(' ');
 450:	80 e2       	ldi	r24, 0x20	; 32
 452:	0e 94 3f 09 	call	0x127e	; 0x127e <ENVIA_DATO>
 456:	83 ec       	ldi	r24, 0xC3	; 195
 458:	99 e0       	ldi	r25, 0x09	; 9
 45a:	01 97       	sbiw	r24, 0x01	; 1
 45c:	f1 f7       	brne	.-4      	; 0x45a <__DATA_REGION_LENGTH__+0x5a>
 45e:	00 c0       	rjmp	.+0      	; 0x460 <__stack+0x1>
 460:	00 00       	nop
		_delay_ms(10);
		//MOVEMOS ZOMBI 2
		POS_LINEA2(12);
 462:	8c e0       	ldi	r24, 0x0C	; 12
 464:	0e 94 ae 09 	call	0x135c	; 0x135c <POS_LINEA2>
		ENVIA_DATO(7);
 468:	87 e0       	ldi	r24, 0x07	; 7
 46a:	0e 94 3f 09 	call	0x127e	; 0x127e <ENVIA_DATO>
 46e:	9f e9       	ldi	r25, 0x9F	; 159
 470:	26 e8       	ldi	r18, 0x86	; 134
 472:	81 e0       	ldi	r24, 0x01	; 1
 474:	91 50       	subi	r25, 0x01	; 1
 476:	20 40       	sbci	r18, 0x00	; 0
 478:	80 40       	sbci	r24, 0x00	; 0
 47a:	e1 f7       	brne	.-8      	; 0x474 <__stack+0x15>
 47c:	00 c0       	rjmp	.+0      	; 0x47e <__stack+0x1f>
 47e:	00 00       	nop
		_delay_ms(500);
		
		//MUERE ZOMBI1
		POS_LINEA1(6);
 480:	86 e0       	ldi	r24, 0x06	; 6
 482:	0e 94 aa 09 	call	0x1354	; 0x1354 <POS_LINEA1>
		ENVIA_DATO(' ');
 486:	80 e2       	ldi	r24, 0x20	; 32
 488:	0e 94 3f 09 	call	0x127e	; 0x127e <ENVIA_DATO>
		//BORRO DISPARO1 PLANTA 2
		POS_LINEA2(2);
 48c:	82 e0       	ldi	r24, 0x02	; 2
 48e:	0e 94 ae 09 	call	0x135c	; 0x135c <POS_LINEA2>
		ENVIA_DATO(' ');
 492:	80 e2       	ldi	r24, 0x20	; 32
 494:	0e 94 3f 09 	call	0x127e	; 0x127e <ENVIA_DATO>
 498:	83 ec       	ldi	r24, 0xC3	; 195
 49a:	99 e0       	ldi	r25, 0x09	; 9
 49c:	01 97       	sbiw	r24, 0x01	; 1
 49e:	f1 f7       	brne	.-4      	; 0x49c <__stack+0x3d>
 4a0:	00 c0       	rjmp	.+0      	; 0x4a2 <__stack+0x43>
 4a2:	00 00       	nop
		_delay_ms(10);
		//DISPARO PLANTA2
		POS_LINEA2(3);
 4a4:	83 e0       	ldi	r24, 0x03	; 3
 4a6:	0e 94 ae 09 	call	0x135c	; 0x135c <POS_LINEA2>
		ENVIA_DATO(4);
 4aa:	84 e0       	ldi	r24, 0x04	; 4
 4ac:	0e 94 3f 09 	call	0x127e	; 0x127e <ENVIA_DATO>
		//BORRAMOS ZOMBI 2 (12)
		POS_LINEA2(12);
 4b0:	8c e0       	ldi	r24, 0x0C	; 12
 4b2:	0e 94 ae 09 	call	0x135c	; 0x135c <POS_LINEA2>
		ENVIA_DATO(' ');
 4b6:	80 e2       	ldi	r24, 0x20	; 32
 4b8:	0e 94 3f 09 	call	0x127e	; 0x127e <ENVIA_DATO>
 4bc:	83 ec       	ldi	r24, 0xC3	; 195
 4be:	99 e0       	ldi	r25, 0x09	; 9
 4c0:	01 97       	sbiw	r24, 0x01	; 1
 4c2:	f1 f7       	brne	.-4      	; 0x4c0 <__stack+0x61>
 4c4:	00 c0       	rjmp	.+0      	; 0x4c6 <__stack+0x67>
 4c6:	00 00       	nop
		_delay_ms(10);
		//MOVEMOS ZOMBI 2 (11)
		POS_LINEA2(11);
 4c8:	8b e0       	ldi	r24, 0x0B	; 11
 4ca:	0e 94 ae 09 	call	0x135c	; 0x135c <POS_LINEA2>
		ENVIA_DATO(7);
 4ce:	87 e0       	ldi	r24, 0x07	; 7
 4d0:	0e 94 3f 09 	call	0x127e	; 0x127e <ENVIA_DATO>
 4d4:	9f e9       	ldi	r25, 0x9F	; 159
 4d6:	26 e8       	ldi	r18, 0x86	; 134
 4d8:	81 e0       	ldi	r24, 0x01	; 1
 4da:	91 50       	subi	r25, 0x01	; 1
 4dc:	20 40       	sbci	r18, 0x00	; 0
 4de:	80 40       	sbci	r24, 0x00	; 0
 4e0:	e1 f7       	brne	.-8      	; 0x4da <__stack+0x7b>
 4e2:	00 c0       	rjmp	.+0      	; 0x4e4 <__stack+0x85>
 4e4:	00 00       	nop
		_delay_ms(500);
		
		//COLOCAMOS NUEZ
		POS_LINEA2(8);
 4e6:	88 e0       	ldi	r24, 0x08	; 8
 4e8:	0e 94 ae 09 	call	0x135c	; 0x135c <POS_LINEA2>
		ENVIA_DATO(6);
 4ec:	86 e0       	ldi	r24, 0x06	; 6
 4ee:	0e 94 3f 09 	call	0x127e	; 0x127e <ENVIA_DATO>
		//BORRAMOS ZOMBI 2 (11)
		POS_LINEA2(11);
 4f2:	8b e0       	ldi	r24, 0x0B	; 11
 4f4:	0e 94 ae 09 	call	0x135c	; 0x135c <POS_LINEA2>
		ENVIA_DATO(' ');
 4f8:	80 e2       	ldi	r24, 0x20	; 32
 4fa:	0e 94 3f 09 	call	0x127e	; 0x127e <ENVIA_DATO>
 4fe:	83 ec       	ldi	r24, 0xC3	; 195
 500:	99 e0       	ldi	r25, 0x09	; 9
 502:	01 97       	sbiw	r24, 0x01	; 1
 504:	f1 f7       	brne	.-4      	; 0x502 <__stack+0xa3>
 506:	00 c0       	rjmp	.+0      	; 0x508 <__stack+0xa9>
 508:	00 00       	nop
		_delay_ms(10);
		//MOVEMOS ZOMBI 2 (10)
		POS_LINEA2(10);
 50a:	8a e0       	ldi	r24, 0x0A	; 10
 50c:	0e 94 ae 09 	call	0x135c	; 0x135c <POS_LINEA2>
		ENVIA_DATO(7);
 510:	87 e0       	ldi	r24, 0x07	; 7
 512:	0e 94 3f 09 	call	0x127e	; 0x127e <ENVIA_DATO>
		//BORRO DISPARO2 PLANTA2
		POS_LINEA2(3);
 516:	83 e0       	ldi	r24, 0x03	; 3
 518:	0e 94 ae 09 	call	0x135c	; 0x135c <POS_LINEA2>
		ENVIA_DATO(' ');
 51c:	80 e2       	ldi	r24, 0x20	; 32
 51e:	0e 94 3f 09 	call	0x127e	; 0x127e <ENVIA_DATO>
 522:	83 ec       	ldi	r24, 0xC3	; 195
 524:	99 e0       	ldi	r25, 0x09	; 9
 526:	01 97       	sbiw	r24, 0x01	; 1
 528:	f1 f7       	brne	.-4      	; 0x526 <__stack+0xc7>
 52a:	00 c0       	rjmp	.+0      	; 0x52c <__stack+0xcd>
 52c:	00 00       	nop
		_delay_ms(10);
		//DISPARO3  PLANTA2
		POS_LINEA2(4);
 52e:	84 e0       	ldi	r24, 0x04	; 4
 530:	0e 94 ae 09 	call	0x135c	; 0x135c <POS_LINEA2>
		ENVIA_DATO(4);
 534:	84 e0       	ldi	r24, 0x04	; 4
 536:	0e 94 3f 09 	call	0x127e	; 0x127e <ENVIA_DATO>
 53a:	9f e9       	ldi	r25, 0x9F	; 159
 53c:	26 e8       	ldi	r18, 0x86	; 134
 53e:	81 e0       	ldi	r24, 0x01	; 1
 540:	91 50       	subi	r25, 0x01	; 1
 542:	20 40       	sbci	r18, 0x00	; 0
 544:	80 40       	sbci	r24, 0x00	; 0
 546:	e1 f7       	brne	.-8      	; 0x540 <__stack+0xe1>
 548:	00 c0       	rjmp	.+0      	; 0x54a <__stack+0xeb>
 54a:	00 00       	nop
		_delay_ms(500);
		
		
		//ZOMBI DE CUBETA
		POS_LINEA2(14);
 54c:	8e e0       	ldi	r24, 0x0E	; 14
 54e:	0e 94 ae 09 	call	0x135c	; 0x135c <POS_LINEA2>
		ENVIA_DATO(1);
 552:	81 e0       	ldi	r24, 0x01	; 1
 554:	0e 94 3f 09 	call	0x127e	; 0x127e <ENVIA_DATO>
		//BORRAMOS ZOMBI 2 (9)
		POS_LINEA2(10);
 558:	8a e0       	ldi	r24, 0x0A	; 10
 55a:	0e 94 ae 09 	call	0x135c	; 0x135c <POS_LINEA2>
		ENVIA_DATO(' ');
 55e:	80 e2       	ldi	r24, 0x20	; 32
 560:	0e 94 3f 09 	call	0x127e	; 0x127e <ENVIA_DATO>
 564:	83 ec       	ldi	r24, 0xC3	; 195
 566:	99 e0       	ldi	r25, 0x09	; 9
 568:	01 97       	sbiw	r24, 0x01	; 1
 56a:	f1 f7       	brne	.-4      	; 0x568 <__stack+0x109>
 56c:	00 c0       	rjmp	.+0      	; 0x56e <__stack+0x10f>
 56e:	00 00       	nop
		_delay_ms(10);
		//MOVEMOS ZOMBI 2 (11)
		POS_LINEA2(9);
 570:	89 e0       	ldi	r24, 0x09	; 9
 572:	0e 94 ae 09 	call	0x135c	; 0x135c <POS_LINEA2>
		ENVIA_DATO(7);
 576:	87 e0       	ldi	r24, 0x07	; 7
 578:	0e 94 3f 09 	call	0x127e	; 0x127e <ENVIA_DATO>
		//BORRO DISPARO3 PLANTA2
		POS_LINEA2(4);
 57c:	84 e0       	ldi	r24, 0x04	; 4
 57e:	0e 94 ae 09 	call	0x135c	; 0x135c <POS_LINEA2>
		ENVIA_DATO(' ');
 582:	80 e2       	ldi	r24, 0x20	; 32
 584:	0e 94 3f 09 	call	0x127e	; 0x127e <ENVIA_DATO>
 588:	83 ec       	ldi	r24, 0xC3	; 195
 58a:	99 e0       	ldi	r25, 0x09	; 9
 58c:	01 97       	sbiw	r24, 0x01	; 1
 58e:	f1 f7       	brne	.-4      	; 0x58c <__stack+0x12d>
 590:	00 c0       	rjmp	.+0      	; 0x592 <__stack+0x133>
 592:	00 00       	nop
		_delay_ms(10);
		//DISPARO PLANTA2
		POS_LINEA2(5);
 594:	85 e0       	ldi	r24, 0x05	; 5
 596:	0e 94 ae 09 	call	0x135c	; 0x135c <POS_LINEA2>
		ENVIA_DATO(4);
 59a:	84 e0       	ldi	r24, 0x04	; 4
 59c:	0e 94 3f 09 	call	0x127e	; 0x127e <ENVIA_DATO>
 5a0:	9f e9       	ldi	r25, 0x9F	; 159
 5a2:	26 e8       	ldi	r18, 0x86	; 134
 5a4:	81 e0       	ldi	r24, 0x01	; 1
 5a6:	91 50       	subi	r25, 0x01	; 1
 5a8:	20 40       	sbci	r18, 0x00	; 0
 5aa:	80 40       	sbci	r24, 0x00	; 0
 5ac:	e1 f7       	brne	.-8      	; 0x5a6 <__stack+0x147>
 5ae:	00 c0       	rjmp	.+0      	; 0x5b0 <__stack+0x151>
 5b0:	00 00       	nop
		_delay_ms(500);
		
		
		//ZOMBI DE CUBETA 2
		POS_LINEA1(14);
 5b2:	8e e0       	ldi	r24, 0x0E	; 14
 5b4:	0e 94 aa 09 	call	0x1354	; 0x1354 <POS_LINEA1>
		ENVIA_DATO(1);
 5b8:	81 e0       	ldi	r24, 0x01	; 1
 5ba:	0e 94 3f 09 	call	0x127e	; 0x127e <ENVIA_DATO>
		//BORRO DISPARO3 PLANTA2
		POS_LINEA2(5);
 5be:	85 e0       	ldi	r24, 0x05	; 5
 5c0:	0e 94 ae 09 	call	0x135c	; 0x135c <POS_LINEA2>
		ENVIA_DATO(' ');
 5c4:	80 e2       	ldi	r24, 0x20	; 32
 5c6:	0e 94 3f 09 	call	0x127e	; 0x127e <ENVIA_DATO>
 5ca:	83 ec       	ldi	r24, 0xC3	; 195
 5cc:	99 e0       	ldi	r25, 0x09	; 9
 5ce:	01 97       	sbiw	r24, 0x01	; 1
 5d0:	f1 f7       	brne	.-4      	; 0x5ce <__stack+0x16f>
 5d2:	00 c0       	rjmp	.+0      	; 0x5d4 <__stack+0x175>
 5d4:	00 00       	nop
		_delay_ms(10);
		//DISPARO PLANTA2
		POS_LINEA2(6);
 5d6:	86 e0       	ldi	r24, 0x06	; 6
 5d8:	0e 94 ae 09 	call	0x135c	; 0x135c <POS_LINEA2>
		ENVIA_DATO(4);
 5dc:	84 e0       	ldi	r24, 0x04	; 4
 5de:	0e 94 3f 09 	call	0x127e	; 0x127e <ENVIA_DATO>
		//BORRAMOS ZOMBI 2 (9)
		POS_LINEA2(9);
 5e2:	89 e0       	ldi	r24, 0x09	; 9
 5e4:	0e 94 ae 09 	call	0x135c	; 0x135c <POS_LINEA2>
		ENVIA_DATO(' ');
 5e8:	80 e2       	ldi	r24, 0x20	; 32
 5ea:	0e 94 3f 09 	call	0x127e	; 0x127e <ENVIA_DATO>
 5ee:	83 ec       	ldi	r24, 0xC3	; 195
 5f0:	99 e0       	ldi	r25, 0x09	; 9
 5f2:	01 97       	sbiw	r24, 0x01	; 1
 5f4:	f1 f7       	brne	.-4      	; 0x5f2 <__stack+0x193>
 5f6:	00 c0       	rjmp	.+0      	; 0x5f8 <__stack+0x199>
 5f8:	00 00       	nop
		_delay_ms(10);
		//MOVEMOS ZOMBI 2 (11)
		POS_LINEA2(8);
 5fa:	88 e0       	ldi	r24, 0x08	; 8
 5fc:	0e 94 ae 09 	call	0x135c	; 0x135c <POS_LINEA2>
		ENVIA_DATO(7);
 600:	87 e0       	ldi	r24, 0x07	; 7
 602:	0e 94 3f 09 	call	0x127e	; 0x127e <ENVIA_DATO>
		//BORRAMOS ZOMBI DE CUBETA (1)
		POS_LINEA2(14);
 606:	8e e0       	ldi	r24, 0x0E	; 14
 608:	0e 94 ae 09 	call	0x135c	; 0x135c <POS_LINEA2>
		ENVIA_DATO(' ');
 60c:	80 e2       	ldi	r24, 0x20	; 32
 60e:	0e 94 3f 09 	call	0x127e	; 0x127e <ENVIA_DATO>
 612:	83 ec       	ldi	r24, 0xC3	; 195
 614:	99 e0       	ldi	r25, 0x09	; 9
 616:	01 97       	sbiw	r24, 0x01	; 1
 618:	f1 f7       	brne	.-4      	; 0x616 <__stack+0x1b7>
 61a:	00 c0       	rjmp	.+0      	; 0x61c <__stack+0x1bd>
 61c:	00 00       	nop
		_delay_ms(10);
		//MOVEMOS ZOMBI DE CUBETA
		POS_LINEA2(13);
 61e:	8d e0       	ldi	r24, 0x0D	; 13
 620:	0e 94 ae 09 	call	0x135c	; 0x135c <POS_LINEA2>
		ENVIA_DATO(1);
 624:	81 e0       	ldi	r24, 0x01	; 1
 626:	0e 94 3f 09 	call	0x127e	; 0x127e <ENVIA_DATO>
 62a:	9f e9       	ldi	r25, 0x9F	; 159
 62c:	26 e8       	ldi	r18, 0x86	; 134
 62e:	81 e0       	ldi	r24, 0x01	; 1
 630:	91 50       	subi	r25, 0x01	; 1
 632:	20 40       	sbci	r18, 0x00	; 0
 634:	80 40       	sbci	r24, 0x00	; 0
 636:	e1 f7       	brne	.-8      	; 0x630 <__stack+0x1d1>
 638:	00 c0       	rjmp	.+0      	; 0x63a <__stack+0x1db>
 63a:	00 00       	nop
		_delay_ms(500);
		
		//NUEVO LANZA GUISANTES
		POS_LINEA2(2);
 63c:	82 e0       	ldi	r24, 0x02	; 2
 63e:	0e 94 ae 09 	call	0x135c	; 0x135c <POS_LINEA2>
		ENVIA_DATO(0);
 642:	80 e0       	ldi	r24, 0x00	; 0
 644:	0e 94 3f 09 	call	0x127e	; 0x127e <ENVIA_DATO>
		//BORRO DISPARO PLANTA2
		POS_LINEA2(6);
 648:	86 e0       	ldi	r24, 0x06	; 6
 64a:	0e 94 ae 09 	call	0x135c	; 0x135c <POS_LINEA2>
		ENVIA_DATO(' ');
 64e:	80 e2       	ldi	r24, 0x20	; 32
 650:	0e 94 3f 09 	call	0x127e	; 0x127e <ENVIA_DATO>
 654:	83 ec       	ldi	r24, 0xC3	; 195
 656:	99 e0       	ldi	r25, 0x09	; 9
 658:	01 97       	sbiw	r24, 0x01	; 1
 65a:	f1 f7       	brne	.-4      	; 0x658 <__stack+0x1f9>
 65c:	00 c0       	rjmp	.+0      	; 0x65e <__stack+0x1ff>
 65e:	00 00       	nop
		_delay_ms(10);
		//DISPARO PLANTA2
		POS_LINEA2(7);
 660:	87 e0       	ldi	r24, 0x07	; 7
 662:	0e 94 ae 09 	call	0x135c	; 0x135c <POS_LINEA2>
		ENVIA_DATO(4);
 666:	84 e0       	ldi	r24, 0x04	; 4
 668:	0e 94 3f 09 	call	0x127e	; 0x127e <ENVIA_DATO>
		//BORRAMOS ZOMBI 2 (8)
		POS_LINEA2(8);
 66c:	88 e0       	ldi	r24, 0x08	; 8
 66e:	0e 94 ae 09 	call	0x135c	; 0x135c <POS_LINEA2>
		ENVIA_DATO(' ');
 672:	80 e2       	ldi	r24, 0x20	; 32
 674:	0e 94 3f 09 	call	0x127e	; 0x127e <ENVIA_DATO>
 678:	83 ec       	ldi	r24, 0xC3	; 195
 67a:	99 e0       	ldi	r25, 0x09	; 9
 67c:	01 97       	sbiw	r24, 0x01	; 1
 67e:	f1 f7       	brne	.-4      	; 0x67c <__stack+0x21d>
 680:	00 c0       	rjmp	.+0      	; 0x682 <__stack+0x223>
 682:	00 00       	nop
		_delay_ms(10);
		//MOVEMOS ZOMBI 2 (11)
		POS_LINEA2(7);
 684:	87 e0       	ldi	r24, 0x07	; 7
 686:	0e 94 ae 09 	call	0x135c	; 0x135c <POS_LINEA2>
		ENVIA_DATO(5);
 68a:	85 e0       	ldi	r24, 0x05	; 5
 68c:	0e 94 3f 09 	call	0x127e	; 0x127e <ENVIA_DATO>
		//BORRAMOS ZOMBI DE CUBETA (1)
		POS_LINEA2(13);
 690:	8d e0       	ldi	r24, 0x0D	; 13
 692:	0e 94 ae 09 	call	0x135c	; 0x135c <POS_LINEA2>
		ENVIA_DATO(' ');
 696:	80 e2       	ldi	r24, 0x20	; 32
 698:	0e 94 3f 09 	call	0x127e	; 0x127e <ENVIA_DATO>
 69c:	83 ec       	ldi	r24, 0xC3	; 195
 69e:	99 e0       	ldi	r25, 0x09	; 9
 6a0:	01 97       	sbiw	r24, 0x01	; 1
 6a2:	f1 f7       	brne	.-4      	; 0x6a0 <__stack+0x241>
 6a4:	00 c0       	rjmp	.+0      	; 0x6a6 <__stack+0x247>
 6a6:	00 00       	nop
		_delay_ms(10);
		//MOVEMOS ZOMBI DE CUBETA
		POS_LINEA2(12);
 6a8:	8c e0       	ldi	r24, 0x0C	; 12
 6aa:	0e 94 ae 09 	call	0x135c	; 0x135c <POS_LINEA2>
		ENVIA_DATO(1);
 6ae:	81 e0       	ldi	r24, 0x01	; 1
 6b0:	0e 94 3f 09 	call	0x127e	; 0x127e <ENVIA_DATO>
		//BORRAMOS ZOMBI DE CUBETA2 
		POS_LINEA1(14);
 6b4:	8e e0       	ldi	r24, 0x0E	; 14
 6b6:	0e 94 aa 09 	call	0x1354	; 0x1354 <POS_LINEA1>
		ENVIA_DATO(' ');
 6ba:	80 e2       	ldi	r24, 0x20	; 32
 6bc:	0e 94 3f 09 	call	0x127e	; 0x127e <ENVIA_DATO>
 6c0:	83 ec       	ldi	r24, 0xC3	; 195
 6c2:	99 e0       	ldi	r25, 0x09	; 9
 6c4:	01 97       	sbiw	r24, 0x01	; 1
 6c6:	f1 f7       	brne	.-4      	; 0x6c4 <__stack+0x265>
 6c8:	00 c0       	rjmp	.+0      	; 0x6ca <__stack+0x26b>
 6ca:	00 00       	nop
		_delay_ms(10);
		//MOVEMOS ZOMBI DE CUBETA 2
		POS_LINEA1(13);
 6cc:	8d e0       	ldi	r24, 0x0D	; 13
 6ce:	0e 94 aa 09 	call	0x1354	; 0x1354 <POS_LINEA1>
		ENVIA_DATO(1);
 6d2:	81 e0       	ldi	r24, 0x01	; 1
 6d4:	0e 94 3f 09 	call	0x127e	; 0x127e <ENVIA_DATO>
 6d8:	9f e9       	ldi	r25, 0x9F	; 159
 6da:	26 e8       	ldi	r18, 0x86	; 134
 6dc:	81 e0       	ldi	r24, 0x01	; 1
 6de:	91 50       	subi	r25, 0x01	; 1
 6e0:	20 40       	sbci	r18, 0x00	; 0
 6e2:	80 40       	sbci	r24, 0x00	; 0
 6e4:	e1 f7       	brne	.-8      	; 0x6de <__stack+0x27f>
 6e6:	00 c0       	rjmp	.+0      	; 0x6e8 <__stack+0x289>
 6e8:	00 00       	nop
		_delay_ms(500);
		
		//DISPARO PLANTA3
		POS_LINEA2(3);
 6ea:	83 e0       	ldi	r24, 0x03	; 3
 6ec:	0e 94 ae 09 	call	0x135c	; 0x135c <POS_LINEA2>
		ENVIA_DATO(4);
 6f0:	84 e0       	ldi	r24, 0x04	; 4
 6f2:	0e 94 3f 09 	call	0x127e	; 0x127e <ENVIA_DATO>
		//BORRAMOS ZOMBI 2 (7)
		POS_LINEA2(7);
 6f6:	87 e0       	ldi	r24, 0x07	; 7
 6f8:	0e 94 ae 09 	call	0x135c	; 0x135c <POS_LINEA2>
		ENVIA_DATO(' ');
 6fc:	80 e2       	ldi	r24, 0x20	; 32
 6fe:	0e 94 3f 09 	call	0x127e	; 0x127e <ENVIA_DATO>
 702:	83 ec       	ldi	r24, 0xC3	; 195
 704:	99 e0       	ldi	r25, 0x09	; 9
 706:	01 97       	sbiw	r24, 0x01	; 1
 708:	f1 f7       	brne	.-4      	; 0x706 <__stack+0x2a7>
 70a:	00 c0       	rjmp	.+0      	; 0x70c <__stack+0x2ad>
 70c:	00 00       	nop
		_delay_ms(10);
		//MOVEMOS ZOMBI 2 (6)
		POS_LINEA2(6);
 70e:	86 e0       	ldi	r24, 0x06	; 6
 710:	0e 94 ae 09 	call	0x135c	; 0x135c <POS_LINEA2>
		ENVIA_DATO(5);
 714:	85 e0       	ldi	r24, 0x05	; 5
 716:	0e 94 3f 09 	call	0x127e	; 0x127e <ENVIA_DATO>
		//BORRAMOS ZOMBI DE CUBETA (2)
		POS_LINEA2(12);
 71a:	8c e0       	ldi	r24, 0x0C	; 12
 71c:	0e 94 ae 09 	call	0x135c	; 0x135c <POS_LINEA2>
		ENVIA_DATO(' ');
 720:	80 e2       	ldi	r24, 0x20	; 32
 722:	0e 94 3f 09 	call	0x127e	; 0x127e <ENVIA_DATO>
 726:	83 ec       	ldi	r24, 0xC3	; 195
 728:	99 e0       	ldi	r25, 0x09	; 9
 72a:	01 97       	sbiw	r24, 0x01	; 1
 72c:	f1 f7       	brne	.-4      	; 0x72a <__stack+0x2cb>
 72e:	00 c0       	rjmp	.+0      	; 0x730 <__stack+0x2d1>
 730:	00 00       	nop
		_delay_ms(10);
		//MOVEMOS ZOMBI DE CUBETA
		POS_LINEA2(11);
 732:	8b e0       	ldi	r24, 0x0B	; 11
 734:	0e 94 ae 09 	call	0x135c	; 0x135c <POS_LINEA2>
		ENVIA_DATO(1);
 738:	81 e0       	ldi	r24, 0x01	; 1
 73a:	0e 94 3f 09 	call	0x127e	; 0x127e <ENVIA_DATO>
		//BORRAMOS ZOMBI DE CUBETA2
		POS_LINEA1(13);
 73e:	8d e0       	ldi	r24, 0x0D	; 13
 740:	0e 94 aa 09 	call	0x1354	; 0x1354 <POS_LINEA1>
		ENVIA_DATO(' ');
 744:	80 e2       	ldi	r24, 0x20	; 32
 746:	0e 94 3f 09 	call	0x127e	; 0x127e <ENVIA_DATO>
 74a:	83 ec       	ldi	r24, 0xC3	; 195
 74c:	99 e0       	ldi	r25, 0x09	; 9
 74e:	01 97       	sbiw	r24, 0x01	; 1
 750:	f1 f7       	brne	.-4      	; 0x74e <__stack+0x2ef>
 752:	00 c0       	rjmp	.+0      	; 0x754 <__stack+0x2f5>
 754:	00 00       	nop
		_delay_ms(10);
		//MOVEMOS ZOMBI DE CUBETA 2
		POS_LINEA1(12);
 756:	8c e0       	ldi	r24, 0x0C	; 12
 758:	0e 94 aa 09 	call	0x1354	; 0x1354 <POS_LINEA1>
		ENVIA_DATO(1);
 75c:	81 e0       	ldi	r24, 0x01	; 1
 75e:	0e 94 3f 09 	call	0x127e	; 0x127e <ENVIA_DATO>
 762:	9f e9       	ldi	r25, 0x9F	; 159
 764:	26 e8       	ldi	r18, 0x86	; 134
 766:	81 e0       	ldi	r24, 0x01	; 1
 768:	91 50       	subi	r25, 0x01	; 1
 76a:	20 40       	sbci	r18, 0x00	; 0
 76c:	80 40       	sbci	r24, 0x00	; 0
 76e:	e1 f7       	brne	.-8      	; 0x768 <__stack+0x309>
 770:	00 c0       	rjmp	.+0      	; 0x772 <__stack+0x313>
 772:	00 00       	nop
		_delay_ms(500);
		
		//DISPARO PLANTA3
		POS_LINEA2(4);
 774:	84 e0       	ldi	r24, 0x04	; 4
 776:	0e 94 ae 09 	call	0x135c	; 0x135c <POS_LINEA2>
		ENVIA_DATO(4);
 77a:	84 e0       	ldi	r24, 0x04	; 4
 77c:	0e 94 3f 09 	call	0x127e	; 0x127e <ENVIA_DATO>
		//BORRAMOS ZOMBI 2 (6)
		POS_LINEA2(6);
 780:	86 e0       	ldi	r24, 0x06	; 6
 782:	0e 94 ae 09 	call	0x135c	; 0x135c <POS_LINEA2>
		ENVIA_DATO(' ');
 786:	80 e2       	ldi	r24, 0x20	; 32
 788:	0e 94 3f 09 	call	0x127e	; 0x127e <ENVIA_DATO>
 78c:	83 ec       	ldi	r24, 0xC3	; 195
 78e:	99 e0       	ldi	r25, 0x09	; 9
 790:	01 97       	sbiw	r24, 0x01	; 1
 792:	f1 f7       	brne	.-4      	; 0x790 <__stack+0x331>
 794:	00 c0       	rjmp	.+0      	; 0x796 <__stack+0x337>
 796:	00 00       	nop
		_delay_ms(10);
		//MOVEMOS ZOMBI 2 (5)
		POS_LINEA2(5);
 798:	85 e0       	ldi	r24, 0x05	; 5
 79a:	0e 94 ae 09 	call	0x135c	; 0x135c <POS_LINEA2>
		ENVIA_DATO(5);
 79e:	85 e0       	ldi	r24, 0x05	; 5
 7a0:	0e 94 3f 09 	call	0x127e	; 0x127e <ENVIA_DATO>
		//BORRAMOS ZOMBI DE CUBETA (3)
		POS_LINEA2(11);
 7a4:	8b e0       	ldi	r24, 0x0B	; 11
 7a6:	0e 94 ae 09 	call	0x135c	; 0x135c <POS_LINEA2>
		ENVIA_DATO(' ');
 7aa:	80 e2       	ldi	r24, 0x20	; 32
 7ac:	0e 94 3f 09 	call	0x127e	; 0x127e <ENVIA_DATO>
 7b0:	83 ec       	ldi	r24, 0xC3	; 195
 7b2:	99 e0       	ldi	r25, 0x09	; 9
 7b4:	01 97       	sbiw	r24, 0x01	; 1
 7b6:	f1 f7       	brne	.-4      	; 0x7b4 <__stack+0x355>
 7b8:	00 c0       	rjmp	.+0      	; 0x7ba <__stack+0x35b>
 7ba:	00 00       	nop
		_delay_ms(10);
		//MOVEMOS ZOMBI DE CUBETA
		POS_LINEA2(10);
 7bc:	8a e0       	ldi	r24, 0x0A	; 10
 7be:	0e 94 ae 09 	call	0x135c	; 0x135c <POS_LINEA2>
		ENVIA_DATO(1);
 7c2:	81 e0       	ldi	r24, 0x01	; 1
 7c4:	0e 94 3f 09 	call	0x127e	; 0x127e <ENVIA_DATO>
		//BORRAMOS ZOMBI DE CUBETA2
		POS_LINEA1(12);
 7c8:	8c e0       	ldi	r24, 0x0C	; 12
 7ca:	0e 94 aa 09 	call	0x1354	; 0x1354 <POS_LINEA1>
		ENVIA_DATO(' ');
 7ce:	80 e2       	ldi	r24, 0x20	; 32
 7d0:	0e 94 3f 09 	call	0x127e	; 0x127e <ENVIA_DATO>
 7d4:	83 ec       	ldi	r24, 0xC3	; 195
 7d6:	99 e0       	ldi	r25, 0x09	; 9
 7d8:	01 97       	sbiw	r24, 0x01	; 1
 7da:	f1 f7       	brne	.-4      	; 0x7d8 <__stack+0x379>
 7dc:	00 c0       	rjmp	.+0      	; 0x7de <__stack+0x37f>
 7de:	00 00       	nop
		_delay_ms(10);
		//MOVEMOS ZOMBI DE CUBETA 2
		POS_LINEA1(11);
 7e0:	8b e0       	ldi	r24, 0x0B	; 11
 7e2:	0e 94 aa 09 	call	0x1354	; 0x1354 <POS_LINEA1>
		ENVIA_DATO(1);
 7e6:	81 e0       	ldi	r24, 0x01	; 1
 7e8:	0e 94 3f 09 	call	0x127e	; 0x127e <ENVIA_DATO>
 7ec:	9f e9       	ldi	r25, 0x9F	; 159
 7ee:	26 e8       	ldi	r18, 0x86	; 134
 7f0:	81 e0       	ldi	r24, 0x01	; 1
 7f2:	91 50       	subi	r25, 0x01	; 1
 7f4:	20 40       	sbci	r18, 0x00	; 0
 7f6:	80 40       	sbci	r24, 0x00	; 0
 7f8:	e1 f7       	brne	.-8      	; 0x7f2 <__stack+0x393>
 7fa:	00 c0       	rjmp	.+0      	; 0x7fc <__stack+0x39d>
 7fc:	00 00       	nop
		_delay_ms(500);
		
		//BORRAMOS DISPARO PLANTA 2
		POS_LINEA1(3);
 7fe:	83 e0       	ldi	r24, 0x03	; 3
 800:	0e 94 aa 09 	call	0x1354	; 0x1354 <POS_LINEA1>
		ENVIA_DATO(' ');
 804:	80 e2       	ldi	r24, 0x20	; 32
 806:	0e 94 3f 09 	call	0x127e	; 0x127e <ENVIA_DATO>
 80a:	83 ec       	ldi	r24, 0xC3	; 195
 80c:	99 e0       	ldi	r25, 0x09	; 9
 80e:	01 97       	sbiw	r24, 0x01	; 1
 810:	f1 f7       	brne	.-4      	; 0x80e <__stack+0x3af>
 812:	00 c0       	rjmp	.+0      	; 0x814 <__stack+0x3b5>
 814:	00 00       	nop
		_delay_ms(10);
		//BORRAMOS ZOMBI 2 (5)
		POS_LINEA2(5);
 816:	85 e0       	ldi	r24, 0x05	; 5
 818:	0e 94 ae 09 	call	0x135c	; 0x135c <POS_LINEA2>
		ENVIA_DATO(' ');
 81c:	80 e2       	ldi	r24, 0x20	; 32
 81e:	0e 94 3f 09 	call	0x127e	; 0x127e <ENVIA_DATO>
 822:	83 ec       	ldi	r24, 0xC3	; 195
 824:	99 e0       	ldi	r25, 0x09	; 9
 826:	01 97       	sbiw	r24, 0x01	; 1
 828:	f1 f7       	brne	.-4      	; 0x826 <__stack+0x3c7>
 82a:	00 c0       	rjmp	.+0      	; 0x82c <__stack+0x3cd>
 82c:	00 00       	nop
		_delay_ms(10);
		//MOVEMOS ZOMBI 2 (4)
		POS_LINEA2(4);
 82e:	84 e0       	ldi	r24, 0x04	; 4
 830:	0e 94 ae 09 	call	0x135c	; 0x135c <POS_LINEA2>
		ENVIA_DATO(2);
 834:	82 e0       	ldi	r24, 0x02	; 2
 836:	0e 94 3f 09 	call	0x127e	; 0x127e <ENVIA_DATO>
		//BORRAMOS ZOMBI DE CUBETA (4)
		POS_LINEA2(10);
 83a:	8a e0       	ldi	r24, 0x0A	; 10
 83c:	0e 94 ae 09 	call	0x135c	; 0x135c <POS_LINEA2>
		ENVIA_DATO(' ');
 840:	80 e2       	ldi	r24, 0x20	; 32
 842:	0e 94 3f 09 	call	0x127e	; 0x127e <ENVIA_DATO>
 846:	83 ec       	ldi	r24, 0xC3	; 195
 848:	99 e0       	ldi	r25, 0x09	; 9
 84a:	01 97       	sbiw	r24, 0x01	; 1
 84c:	f1 f7       	brne	.-4      	; 0x84a <__stack+0x3eb>
 84e:	00 c0       	rjmp	.+0      	; 0x850 <__stack+0x3f1>
 850:	00 00       	nop
		_delay_ms(10);
		//MOVEMOS ZOMBI DE CUBETA
		POS_LINEA2(9);
 852:	89 e0       	ldi	r24, 0x09	; 9
 854:	0e 94 ae 09 	call	0x135c	; 0x135c <POS_LINEA2>
		ENVIA_DATO(1);
 858:	81 e0       	ldi	r24, 0x01	; 1
 85a:	0e 94 3f 09 	call	0x127e	; 0x127e <ENVIA_DATO>
		//BORRAMOS ZOMBI DE CUBETA2
		POS_LINEA1(11);
 85e:	8b e0       	ldi	r24, 0x0B	; 11
 860:	0e 94 aa 09 	call	0x1354	; 0x1354 <POS_LINEA1>
		ENVIA_DATO(' ');
 864:	80 e2       	ldi	r24, 0x20	; 32
 866:	0e 94 3f 09 	call	0x127e	; 0x127e <ENVIA_DATO>
 86a:	83 ec       	ldi	r24, 0xC3	; 195
 86c:	99 e0       	ldi	r25, 0x09	; 9
 86e:	01 97       	sbiw	r24, 0x01	; 1
 870:	f1 f7       	brne	.-4      	; 0x86e <__stack+0x40f>
 872:	00 c0       	rjmp	.+0      	; 0x874 <__stack+0x415>
 874:	00 00       	nop
		_delay_ms(10);
		//MOVEMOS ZOMBI DE CUBETA 2
		POS_LINEA1(10);
 876:	8a e0       	ldi	r24, 0x0A	; 10
 878:	0e 94 aa 09 	call	0x1354	; 0x1354 <POS_LINEA1>
		ENVIA_DATO(1);
 87c:	81 e0       	ldi	r24, 0x01	; 1
 87e:	0e 94 3f 09 	call	0x127e	; 0x127e <ENVIA_DATO>
 882:	9f e9       	ldi	r25, 0x9F	; 159
 884:	26 e8       	ldi	r18, 0x86	; 134
 886:	81 e0       	ldi	r24, 0x01	; 1
 888:	91 50       	subi	r25, 0x01	; 1
 88a:	20 40       	sbci	r18, 0x00	; 0
 88c:	80 40       	sbci	r24, 0x00	; 0
 88e:	e1 f7       	brne	.-8      	; 0x888 <__stack+0x429>
 890:	00 c0       	rjmp	.+0      	; 0x892 <__stack+0x433>
 892:	00 00       	nop
		_delay_ms(500);
		
		//MUERE ZOMBI
		POS_LINEA2(4);
 894:	84 e0       	ldi	r24, 0x04	; 4
 896:	0e 94 ae 09 	call	0x135c	; 0x135c <POS_LINEA2>
		ENVIA_DATO(' ');
 89a:	80 e2       	ldi	r24, 0x20	; 32
 89c:	0e 94 3f 09 	call	0x127e	; 0x127e <ENVIA_DATO>
 8a0:	83 ec       	ldi	r24, 0xC3	; 195
 8a2:	99 e0       	ldi	r25, 0x09	; 9
 8a4:	01 97       	sbiw	r24, 0x01	; 1
 8a6:	f1 f7       	brne	.-4      	; 0x8a4 <__stack+0x445>
 8a8:	00 c0       	rjmp	.+0      	; 0x8aa <__stack+0x44b>
 8aa:	00 00       	nop
		_delay_ms(10);
		//BORRAMOS DISPARO PLANTA 2
		POS_LINEA2(3);
 8ac:	83 e0       	ldi	r24, 0x03	; 3
 8ae:	0e 94 ae 09 	call	0x135c	; 0x135c <POS_LINEA2>
		ENVIA_DATO(' ');
 8b2:	80 e2       	ldi	r24, 0x20	; 32
 8b4:	0e 94 3f 09 	call	0x127e	; 0x127e <ENVIA_DATO>
 8b8:	83 ec       	ldi	r24, 0xC3	; 195
 8ba:	99 e0       	ldi	r25, 0x09	; 9
 8bc:	01 97       	sbiw	r24, 0x01	; 1
 8be:	f1 f7       	brne	.-4      	; 0x8bc <__stack+0x45d>
 8c0:	00 c0       	rjmp	.+0      	; 0x8c2 <__stack+0x463>
 8c2:	00 00       	nop
		_delay_ms(10);
		//DISPARA PLANTA
		POS_LINEA2(4);
 8c4:	84 e0       	ldi	r24, 0x04	; 4
 8c6:	0e 94 ae 09 	call	0x135c	; 0x135c <POS_LINEA2>
		ENVIA_DATO(4);
 8ca:	84 e0       	ldi	r24, 0x04	; 4
 8cc:	0e 94 3f 09 	call	0x127e	; 0x127e <ENVIA_DATO>
		//DISPARA PLANTA
		POS_LINEA1(2);
 8d0:	82 e0       	ldi	r24, 0x02	; 2
 8d2:	0e 94 aa 09 	call	0x1354	; 0x1354 <POS_LINEA1>
		ENVIA_DATO(4);
 8d6:	84 e0       	ldi	r24, 0x04	; 4
 8d8:	0e 94 3f 09 	call	0x127e	; 0x127e <ENVIA_DATO>
		//BORRAMOS ZOMBI DE CUBETA (5)
		POS_LINEA2(9);
 8dc:	89 e0       	ldi	r24, 0x09	; 9
 8de:	0e 94 ae 09 	call	0x135c	; 0x135c <POS_LINEA2>
		ENVIA_DATO(' ');
 8e2:	80 e2       	ldi	r24, 0x20	; 32
 8e4:	0e 94 3f 09 	call	0x127e	; 0x127e <ENVIA_DATO>
 8e8:	83 ec       	ldi	r24, 0xC3	; 195
 8ea:	99 e0       	ldi	r25, 0x09	; 9
 8ec:	01 97       	sbiw	r24, 0x01	; 1
 8ee:	f1 f7       	brne	.-4      	; 0x8ec <__stack+0x48d>
 8f0:	00 c0       	rjmp	.+0      	; 0x8f2 <__stack+0x493>
 8f2:	00 00       	nop
		_delay_ms(10);
		//MOVEMOS ZOMBI DE CUBETA
		POS_LINEA2(8);
 8f4:	88 e0       	ldi	r24, 0x08	; 8
 8f6:	0e 94 ae 09 	call	0x135c	; 0x135c <POS_LINEA2>
		ENVIA_DATO(1);
 8fa:	81 e0       	ldi	r24, 0x01	; 1
 8fc:	0e 94 3f 09 	call	0x127e	; 0x127e <ENVIA_DATO>
		//BORRAMOS ZOMBI DE CUBETA2
		POS_LINEA1(10);
 900:	8a e0       	ldi	r24, 0x0A	; 10
 902:	0e 94 aa 09 	call	0x1354	; 0x1354 <POS_LINEA1>
		ENVIA_DATO(' ');
 906:	80 e2       	ldi	r24, 0x20	; 32
 908:	0e 94 3f 09 	call	0x127e	; 0x127e <ENVIA_DATO>
 90c:	83 ec       	ldi	r24, 0xC3	; 195
 90e:	99 e0       	ldi	r25, 0x09	; 9
 910:	01 97       	sbiw	r24, 0x01	; 1
 912:	f1 f7       	brne	.-4      	; 0x910 <__stack+0x4b1>
 914:	00 c0       	rjmp	.+0      	; 0x916 <__stack+0x4b7>
 916:	00 00       	nop
		_delay_ms(10);
		//MOVEMOS ZOMBI DE CUBETA 2
		POS_LINEA1(9);
 918:	89 e0       	ldi	r24, 0x09	; 9
 91a:	0e 94 aa 09 	call	0x1354	; 0x1354 <POS_LINEA1>
		ENVIA_DATO(1);
 91e:	81 e0       	ldi	r24, 0x01	; 1
 920:	0e 94 3f 09 	call	0x127e	; 0x127e <ENVIA_DATO>
 924:	9f e9       	ldi	r25, 0x9F	; 159
 926:	26 e8       	ldi	r18, 0x86	; 134
 928:	81 e0       	ldi	r24, 0x01	; 1
 92a:	91 50       	subi	r25, 0x01	; 1
 92c:	20 40       	sbci	r18, 0x00	; 0
 92e:	80 40       	sbci	r24, 0x00	; 0
 930:	e1 f7       	brne	.-8      	; 0x92a <__stack+0x4cb>
 932:	00 c0       	rjmp	.+0      	; 0x934 <__stack+0x4d5>
 934:	00 00       	nop
		_delay_ms(500);
		
		//BORRAMOS DISPARO PLANTA 2
		POS_LINEA2(4);
 936:	84 e0       	ldi	r24, 0x04	; 4
 938:	0e 94 ae 09 	call	0x135c	; 0x135c <POS_LINEA2>
		ENVIA_DATO(' ');
 93c:	80 e2       	ldi	r24, 0x20	; 32
 93e:	0e 94 3f 09 	call	0x127e	; 0x127e <ENVIA_DATO>
 942:	83 ec       	ldi	r24, 0xC3	; 195
 944:	99 e0       	ldi	r25, 0x09	; 9
 946:	01 97       	sbiw	r24, 0x01	; 1
 948:	f1 f7       	brne	.-4      	; 0x946 <__stack+0x4e7>
 94a:	00 c0       	rjmp	.+0      	; 0x94c <__stack+0x4ed>
 94c:	00 00       	nop
		_delay_ms(10);
		//DISPARA PLANTA
		POS_LINEA2(5);
 94e:	85 e0       	ldi	r24, 0x05	; 5
 950:	0e 94 ae 09 	call	0x135c	; 0x135c <POS_LINEA2>
		ENVIA_DATO(4);
 954:	84 e0       	ldi	r24, 0x04	; 4
 956:	0e 94 3f 09 	call	0x127e	; 0x127e <ENVIA_DATO>
		//BORRAMOS DISPARO PLANTA 4
		POS_LINEA1(2);
 95a:	82 e0       	ldi	r24, 0x02	; 2
 95c:	0e 94 aa 09 	call	0x1354	; 0x1354 <POS_LINEA1>
		ENVIA_DATO(' ');
 960:	80 e2       	ldi	r24, 0x20	; 32
 962:	0e 94 3f 09 	call	0x127e	; 0x127e <ENVIA_DATO>
 966:	83 ec       	ldi	r24, 0xC3	; 195
 968:	99 e0       	ldi	r25, 0x09	; 9
 96a:	01 97       	sbiw	r24, 0x01	; 1
 96c:	f1 f7       	brne	.-4      	; 0x96a <__stack+0x50b>
 96e:	00 c0       	rjmp	.+0      	; 0x970 <__stack+0x511>
 970:	00 00       	nop
		_delay_ms(10);
		//DISPARA PLANTA
		POS_LINEA1(3);
 972:	83 e0       	ldi	r24, 0x03	; 3
 974:	0e 94 aa 09 	call	0x1354	; 0x1354 <POS_LINEA1>
		ENVIA_DATO(4);
 978:	84 e0       	ldi	r24, 0x04	; 4
 97a:	0e 94 3f 09 	call	0x127e	; 0x127e <ENVIA_DATO>
		//DISPARA PLANTA1
		POS_LINEA2(3);
 97e:	83 e0       	ldi	r24, 0x03	; 3
 980:	0e 94 ae 09 	call	0x135c	; 0x135c <POS_LINEA2>
		ENVIA_DATO(4);
 984:	84 e0       	ldi	r24, 0x04	; 4
 986:	0e 94 3f 09 	call	0x127e	; 0x127e <ENVIA_DATO>
		//BORRAMOS ZOMBI DE CUBETA (6)
		POS_LINEA2(8);
 98a:	88 e0       	ldi	r24, 0x08	; 8
 98c:	0e 94 ae 09 	call	0x135c	; 0x135c <POS_LINEA2>
		ENVIA_DATO(' ');
 990:	80 e2       	ldi	r24, 0x20	; 32
 992:	0e 94 3f 09 	call	0x127e	; 0x127e <ENVIA_DATO>
 996:	83 ec       	ldi	r24, 0xC3	; 195
 998:	99 e0       	ldi	r25, 0x09	; 9
 99a:	01 97       	sbiw	r24, 0x01	; 1
 99c:	f1 f7       	brne	.-4      	; 0x99a <__stack+0x53b>
 99e:	00 c0       	rjmp	.+0      	; 0x9a0 <__stack+0x541>
 9a0:	00 00       	nop
		_delay_ms(10);
		//MOVEMOS ZOMBI DE CUBETA
		POS_LINEA2(7);
 9a2:	87 e0       	ldi	r24, 0x07	; 7
 9a4:	0e 94 ae 09 	call	0x135c	; 0x135c <POS_LINEA2>
		ENVIA_DATO(1);
 9a8:	81 e0       	ldi	r24, 0x01	; 1
 9aa:	0e 94 3f 09 	call	0x127e	; 0x127e <ENVIA_DATO>
		//BORRAMOS ZOMBI DE CUBETA2
		POS_LINEA1(9);
 9ae:	89 e0       	ldi	r24, 0x09	; 9
 9b0:	0e 94 aa 09 	call	0x1354	; 0x1354 <POS_LINEA1>
		ENVIA_DATO(' ');
 9b4:	80 e2       	ldi	r24, 0x20	; 32
 9b6:	0e 94 3f 09 	call	0x127e	; 0x127e <ENVIA_DATO>
 9ba:	83 ec       	ldi	r24, 0xC3	; 195
 9bc:	99 e0       	ldi	r25, 0x09	; 9
 9be:	01 97       	sbiw	r24, 0x01	; 1
 9c0:	f1 f7       	brne	.-4      	; 0x9be <__stack+0x55f>
 9c2:	00 c0       	rjmp	.+0      	; 0x9c4 <__stack+0x565>
 9c4:	00 00       	nop
		_delay_ms(10);
		//MOVEMOS ZOMBI DE CUBETA 2
		POS_LINEA1(8);
 9c6:	88 e0       	ldi	r24, 0x08	; 8
 9c8:	0e 94 aa 09 	call	0x1354	; 0x1354 <POS_LINEA1>
		ENVIA_DATO(1);
 9cc:	81 e0       	ldi	r24, 0x01	; 1
 9ce:	0e 94 3f 09 	call	0x127e	; 0x127e <ENVIA_DATO>
 9d2:	9f e9       	ldi	r25, 0x9F	; 159
 9d4:	26 e8       	ldi	r18, 0x86	; 134
 9d6:	81 e0       	ldi	r24, 0x01	; 1
 9d8:	91 50       	subi	r25, 0x01	; 1
 9da:	20 40       	sbci	r18, 0x00	; 0
 9dc:	80 40       	sbci	r24, 0x00	; 0
 9de:	e1 f7       	brne	.-8      	; 0x9d8 <__stack+0x579>
 9e0:	00 c0       	rjmp	.+0      	; 0x9e2 <__stack+0x583>
 9e2:	00 00       	nop
		_delay_ms(500);
		
		//BORRAMOS DISPARO PLANTA 2
		POS_LINEA2(5);
 9e4:	85 e0       	ldi	r24, 0x05	; 5
 9e6:	0e 94 ae 09 	call	0x135c	; 0x135c <POS_LINEA2>
		ENVIA_DATO(' ');
 9ea:	80 e2       	ldi	r24, 0x20	; 32
 9ec:	0e 94 3f 09 	call	0x127e	; 0x127e <ENVIA_DATO>
 9f0:	83 ec       	ldi	r24, 0xC3	; 195
 9f2:	99 e0       	ldi	r25, 0x09	; 9
 9f4:	01 97       	sbiw	r24, 0x01	; 1
 9f6:	f1 f7       	brne	.-4      	; 0x9f4 <__stack+0x595>
 9f8:	00 c0       	rjmp	.+0      	; 0x9fa <__stack+0x59b>
 9fa:	00 00       	nop
		_delay_ms(10);
		//BORRAMOS ZOMBI CUBETA
		POS_LINEA2(7);
 9fc:	87 e0       	ldi	r24, 0x07	; 7
 9fe:	0e 94 ae 09 	call	0x135c	; 0x135c <POS_LINEA2>
		ENVIA_DATO(' ');
 a02:	80 e2       	ldi	r24, 0x20	; 32
 a04:	0e 94 3f 09 	call	0x127e	; 0x127e <ENVIA_DATO>
 a08:	83 ec       	ldi	r24, 0xC3	; 195
 a0a:	99 e0       	ldi	r25, 0x09	; 9
 a0c:	01 97       	sbiw	r24, 0x01	; 1
 a0e:	f1 f7       	brne	.-4      	; 0xa0c <__stack+0x5ad>
 a10:	00 c0       	rjmp	.+0      	; 0xa12 <__stack+0x5b3>
 a12:	00 00       	nop
		_delay_ms(10);
		//DISPARA PLANTA
		POS_LINEA2(6);
 a14:	86 e0       	ldi	r24, 0x06	; 6
 a16:	0e 94 ae 09 	call	0x135c	; 0x135c <POS_LINEA2>
		ENVIA_DATO(7);
 a1a:	87 e0       	ldi	r24, 0x07	; 7
 a1c:	0e 94 3f 09 	call	0x127e	; 0x127e <ENVIA_DATO>
		//BORRAMOS DISPARO PLANTA 4
		POS_LINEA1(3);
 a20:	83 e0       	ldi	r24, 0x03	; 3
 a22:	0e 94 aa 09 	call	0x1354	; 0x1354 <POS_LINEA1>
		ENVIA_DATO(' ');
 a26:	80 e2       	ldi	r24, 0x20	; 32
 a28:	0e 94 3f 09 	call	0x127e	; 0x127e <ENVIA_DATO>
 a2c:	83 ec       	ldi	r24, 0xC3	; 195
 a2e:	99 e0       	ldi	r25, 0x09	; 9
 a30:	01 97       	sbiw	r24, 0x01	; 1
 a32:	f1 f7       	brne	.-4      	; 0xa30 <__stack+0x5d1>
 a34:	00 c0       	rjmp	.+0      	; 0xa36 <__stack+0x5d7>
 a36:	00 00       	nop
		_delay_ms(10);
		//DISPARA PLANTA
		POS_LINEA1(4);
 a38:	84 e0       	ldi	r24, 0x04	; 4
 a3a:	0e 94 aa 09 	call	0x1354	; 0x1354 <POS_LINEA1>
		ENVIA_DATO(4);
 a3e:	84 e0       	ldi	r24, 0x04	; 4
 a40:	0e 94 3f 09 	call	0x127e	; 0x127e <ENVIA_DATO>
		//BORRAMOS DISPARO PLANTA 1
		POS_LINEA2(3);
 a44:	83 e0       	ldi	r24, 0x03	; 3
 a46:	0e 94 ae 09 	call	0x135c	; 0x135c <POS_LINEA2>
		ENVIA_DATO(' ');
 a4a:	80 e2       	ldi	r24, 0x20	; 32
 a4c:	0e 94 3f 09 	call	0x127e	; 0x127e <ENVIA_DATO>
 a50:	83 ec       	ldi	r24, 0xC3	; 195
 a52:	99 e0       	ldi	r25, 0x09	; 9
 a54:	01 97       	sbiw	r24, 0x01	; 1
 a56:	f1 f7       	brne	.-4      	; 0xa54 <__stack+0x5f5>
 a58:	00 c0       	rjmp	.+0      	; 0xa5a <__stack+0x5fb>
 a5a:	00 00       	nop
		_delay_ms(10);
		//DISPARA PLANTA1
		POS_LINEA2(4);
 a5c:	84 e0       	ldi	r24, 0x04	; 4
 a5e:	0e 94 ae 09 	call	0x135c	; 0x135c <POS_LINEA2>
		ENVIA_DATO(4);
 a62:	84 e0       	ldi	r24, 0x04	; 4
 a64:	0e 94 3f 09 	call	0x127e	; 0x127e <ENVIA_DATO>
		//BORRAMOS ZOMBI DE CUBETA2
		POS_LINEA1(8);
 a68:	88 e0       	ldi	r24, 0x08	; 8
 a6a:	0e 94 aa 09 	call	0x1354	; 0x1354 <POS_LINEA1>
		ENVIA_DATO(' ');
 a6e:	80 e2       	ldi	r24, 0x20	; 32
 a70:	0e 94 3f 09 	call	0x127e	; 0x127e <ENVIA_DATO>
 a74:	83 ec       	ldi	r24, 0xC3	; 195
 a76:	99 e0       	ldi	r25, 0x09	; 9
 a78:	01 97       	sbiw	r24, 0x01	; 1
 a7a:	f1 f7       	brne	.-4      	; 0xa78 <__stack+0x619>
 a7c:	00 c0       	rjmp	.+0      	; 0xa7e <__stack+0x61f>
 a7e:	00 00       	nop
		_delay_ms(10);
		//MOVEMOS ZOMBI DE CUBETA 2
		POS_LINEA1(7);
 a80:	87 e0       	ldi	r24, 0x07	; 7
 a82:	0e 94 aa 09 	call	0x1354	; 0x1354 <POS_LINEA1>
		ENVIA_DATO(1);
 a86:	81 e0       	ldi	r24, 0x01	; 1
 a88:	0e 94 3f 09 	call	0x127e	; 0x127e <ENVIA_DATO>
 a8c:	9f e9       	ldi	r25, 0x9F	; 159
 a8e:	26 e8       	ldi	r18, 0x86	; 134
 a90:	81 e0       	ldi	r24, 0x01	; 1
 a92:	91 50       	subi	r25, 0x01	; 1
 a94:	20 40       	sbci	r18, 0x00	; 0
 a96:	80 40       	sbci	r24, 0x00	; 0
 a98:	e1 f7       	brne	.-8      	; 0xa92 <__stack+0x633>
 a9a:	00 c0       	rjmp	.+0      	; 0xa9c <__stack+0x63d>
 a9c:	00 00       	nop
		_delay_ms(500);
		
		
		//BORRAMOS DISPARO PLANTA 2
		POS_LINEA2(6);
 a9e:	86 e0       	ldi	r24, 0x06	; 6
 aa0:	0e 94 ae 09 	call	0x135c	; 0x135c <POS_LINEA2>
		ENVIA_DATO(' ');
 aa4:	80 e2       	ldi	r24, 0x20	; 32
 aa6:	0e 94 3f 09 	call	0x127e	; 0x127e <ENVIA_DATO>
 aaa:	83 ec       	ldi	r24, 0xC3	; 195
 aac:	99 e0       	ldi	r25, 0x09	; 9
 aae:	01 97       	sbiw	r24, 0x01	; 1
 ab0:	f1 f7       	brne	.-4      	; 0xaae <__stack+0x64f>
 ab2:	00 c0       	rjmp	.+0      	; 0xab4 <__stack+0x655>
 ab4:	00 00       	nop
		_delay_ms(10);
		//BORRAMOS DISPARO PLANTA 2
		POS_LINEA2(4);
 ab6:	84 e0       	ldi	r24, 0x04	; 4
 ab8:	0e 94 ae 09 	call	0x135c	; 0x135c <POS_LINEA2>
		ENVIA_DATO(' ');
 abc:	80 e2       	ldi	r24, 0x20	; 32
 abe:	0e 94 3f 09 	call	0x127e	; 0x127e <ENVIA_DATO>
 ac2:	83 ec       	ldi	r24, 0xC3	; 195
 ac4:	99 e0       	ldi	r25, 0x09	; 9
 ac6:	01 97       	sbiw	r24, 0x01	; 1
 ac8:	f1 f7       	brne	.-4      	; 0xac6 <__stack+0x667>
 aca:	00 c0       	rjmp	.+0      	; 0xacc <__stack+0x66d>
 acc:	00 00       	nop
		_delay_ms(10);
		//BORRAMOS ZOMBI CUBETA
		POS_LINEA2(5);
 ace:	85 e0       	ldi	r24, 0x05	; 5
 ad0:	0e 94 ae 09 	call	0x135c	; 0x135c <POS_LINEA2>
		ENVIA_DATO(5);
 ad4:	85 e0       	ldi	r24, 0x05	; 5
 ad6:	0e 94 3f 09 	call	0x127e	; 0x127e <ENVIA_DATO>
		//BORRAMOS DISPARO PLANTA 4
		POS_LINEA1(4);
 ada:	84 e0       	ldi	r24, 0x04	; 4
 adc:	0e 94 aa 09 	call	0x1354	; 0x1354 <POS_LINEA1>
		ENVIA_DATO(' ');
 ae0:	80 e2       	ldi	r24, 0x20	; 32
 ae2:	0e 94 3f 09 	call	0x127e	; 0x127e <ENVIA_DATO>
 ae6:	83 ec       	ldi	r24, 0xC3	; 195
 ae8:	99 e0       	ldi	r25, 0x09	; 9
 aea:	01 97       	sbiw	r24, 0x01	; 1
 aec:	f1 f7       	brne	.-4      	; 0xaea <__stack+0x68b>
 aee:	00 c0       	rjmp	.+0      	; 0xaf0 <__stack+0x691>
 af0:	00 00       	nop
		_delay_ms(10);
		//DISPARA PLANTA
		POS_LINEA1(5);
 af2:	85 e0       	ldi	r24, 0x05	; 5
 af4:	0e 94 aa 09 	call	0x1354	; 0x1354 <POS_LINEA1>
		ENVIA_DATO(4);
 af8:	84 e0       	ldi	r24, 0x04	; 4
 afa:	0e 94 3f 09 	call	0x127e	; 0x127e <ENVIA_DATO>
		//BORRAMOS ZOMBI DE CUBETA2
		POS_LINEA1(7);
 afe:	87 e0       	ldi	r24, 0x07	; 7
 b00:	0e 94 aa 09 	call	0x1354	; 0x1354 <POS_LINEA1>
		ENVIA_DATO(' ');
 b04:	80 e2       	ldi	r24, 0x20	; 32
 b06:	0e 94 3f 09 	call	0x127e	; 0x127e <ENVIA_DATO>
 b0a:	83 ec       	ldi	r24, 0xC3	; 195
 b0c:	99 e0       	ldi	r25, 0x09	; 9
 b0e:	01 97       	sbiw	r24, 0x01	; 1
 b10:	f1 f7       	brne	.-4      	; 0xb0e <__stack+0x6af>
 b12:	00 c0       	rjmp	.+0      	; 0xb14 <__stack+0x6b5>
 b14:	00 00       	nop
		_delay_ms(10);
		//MOVEMOS ZOMBI DE CUBETA 2
		POS_LINEA1(6);
 b16:	86 e0       	ldi	r24, 0x06	; 6
 b18:	0e 94 aa 09 	call	0x1354	; 0x1354 <POS_LINEA1>
		ENVIA_DATO(1);
 b1c:	81 e0       	ldi	r24, 0x01	; 1
 b1e:	0e 94 3f 09 	call	0x127e	; 0x127e <ENVIA_DATO>
 b22:	9f e9       	ldi	r25, 0x9F	; 159
 b24:	26 e8       	ldi	r18, 0x86	; 134
 b26:	81 e0       	ldi	r24, 0x01	; 1
 b28:	91 50       	subi	r25, 0x01	; 1
 b2a:	20 40       	sbci	r18, 0x00	; 0
 b2c:	80 40       	sbci	r24, 0x00	; 0
 b2e:	e1 f7       	brne	.-8      	; 0xb28 <__stack+0x6c9>
 b30:	00 c0       	rjmp	.+0      	; 0xb32 <__stack+0x6d3>
 b32:	00 00       	nop
		_delay_ms(500);
		
		//DISPARA PLANTA
		POS_LINEA2(3);
 b34:	83 e0       	ldi	r24, 0x03	; 3
 b36:	0e 94 ae 09 	call	0x135c	; 0x135c <POS_LINEA2>
		ENVIA_DATO(4);
 b3a:	84 e0       	ldi	r24, 0x04	; 4
 b3c:	0e 94 3f 09 	call	0x127e	; 0x127e <ENVIA_DATO>
		//BORRAMOS ZOMBI BASICO
		POS_LINEA2(5);
 b40:	85 e0       	ldi	r24, 0x05	; 5
 b42:	0e 94 ae 09 	call	0x135c	; 0x135c <POS_LINEA2>
		ENVIA_DATO(' ');
 b46:	80 e2       	ldi	r24, 0x20	; 32
 b48:	0e 94 3f 09 	call	0x127e	; 0x127e <ENVIA_DATO>
 b4c:	83 ec       	ldi	r24, 0xC3	; 195
 b4e:	99 e0       	ldi	r25, 0x09	; 9
 b50:	01 97       	sbiw	r24, 0x01	; 1
 b52:	f1 f7       	brne	.-4      	; 0xb50 <__stack+0x6f1>
 b54:	00 c0       	rjmp	.+0      	; 0xb56 <__stack+0x6f7>
 b56:	00 00       	nop
		_delay_ms(10);
		//MOVEMOS ZOMBI NORMAL
		POS_LINEA2(4);
 b58:	84 e0       	ldi	r24, 0x04	; 4
 b5a:	0e 94 ae 09 	call	0x135c	; 0x135c <POS_LINEA2>
		ENVIA_DATO(5);
 b5e:	85 e0       	ldi	r24, 0x05	; 5
 b60:	0e 94 3f 09 	call	0x127e	; 0x127e <ENVIA_DATO>
		//BORRAMOS ZOMBI DE CUBETA2
		POS_LINEA1(6);
 b64:	86 e0       	ldi	r24, 0x06	; 6
 b66:	0e 94 aa 09 	call	0x1354	; 0x1354 <POS_LINEA1>
		ENVIA_DATO(' ');
 b6a:	80 e2       	ldi	r24, 0x20	; 32
 b6c:	0e 94 3f 09 	call	0x127e	; 0x127e <ENVIA_DATO>
 b70:	83 ec       	ldi	r24, 0xC3	; 195
 b72:	99 e0       	ldi	r25, 0x09	; 9
 b74:	01 97       	sbiw	r24, 0x01	; 1
 b76:	f1 f7       	brne	.-4      	; 0xb74 <__stack+0x715>
 b78:	00 c0       	rjmp	.+0      	; 0xb7a <__stack+0x71b>
 b7a:	00 00       	nop
		_delay_ms(10);
		//MOVEMOS ZOMBI DE CUBETA 2
		POS_LINEA1(5);
 b7c:	85 e0       	ldi	r24, 0x05	; 5
 b7e:	0e 94 aa 09 	call	0x1354	; 0x1354 <POS_LINEA1>
		ENVIA_DATO(7);
 b82:	87 e0       	ldi	r24, 0x07	; 7
 b84:	0e 94 3f 09 	call	0x127e	; 0x127e <ENVIA_DATO>
 b88:	9f e9       	ldi	r25, 0x9F	; 159
 b8a:	26 e8       	ldi	r18, 0x86	; 134
 b8c:	81 e0       	ldi	r24, 0x01	; 1
 b8e:	91 50       	subi	r25, 0x01	; 1
 b90:	20 40       	sbci	r18, 0x00	; 0
 b92:	80 40       	sbci	r24, 0x00	; 0
 b94:	e1 f7       	brne	.-8      	; 0xb8e <__stack+0x72f>
 b96:	00 c0       	rjmp	.+0      	; 0xb98 <__stack+0x739>
 b98:	00 00       	nop
		_delay_ms(500);
		
		//BORRAMOS ZOMBI DE CUBETA2
		POS_LINEA2(4);
 b9a:	84 e0       	ldi	r24, 0x04	; 4
 b9c:	0e 94 ae 09 	call	0x135c	; 0x135c <POS_LINEA2>
		ENVIA_DATO(' ');
 ba0:	80 e2       	ldi	r24, 0x20	; 32
 ba2:	0e 94 3f 09 	call	0x127e	; 0x127e <ENVIA_DATO>
 ba6:	83 ec       	ldi	r24, 0xC3	; 195
 ba8:	99 e0       	ldi	r25, 0x09	; 9
 baa:	01 97       	sbiw	r24, 0x01	; 1
 bac:	f1 f7       	brne	.-4      	; 0xbaa <__stack+0x74b>
 bae:	00 c0       	rjmp	.+0      	; 0xbb0 <__stack+0x751>
 bb0:	00 00       	nop
		_delay_ms(10);
		//MOVEMOS ZOMBI DE CUBETA 2
		POS_LINEA2(3);
 bb2:	83 e0       	ldi	r24, 0x03	; 3
 bb4:	0e 94 ae 09 	call	0x135c	; 0x135c <POS_LINEA2>
		ENVIA_DATO(2);
 bb8:	82 e0       	ldi	r24, 0x02	; 2
 bba:	0e 94 3f 09 	call	0x127e	; 0x127e <ENVIA_DATO>
		//BORRAMOS ZOMBI DE CUBETA2
		POS_LINEA1(6);
 bbe:	86 e0       	ldi	r24, 0x06	; 6
 bc0:	0e 94 aa 09 	call	0x1354	; 0x1354 <POS_LINEA1>
		ENVIA_DATO(' ');
 bc4:	80 e2       	ldi	r24, 0x20	; 32
 bc6:	0e 94 3f 09 	call	0x127e	; 0x127e <ENVIA_DATO>
 bca:	83 ec       	ldi	r24, 0xC3	; 195
 bcc:	99 e0       	ldi	r25, 0x09	; 9
 bce:	01 97       	sbiw	r24, 0x01	; 1
 bd0:	f1 f7       	brne	.-4      	; 0xbce <__stack+0x76f>
 bd2:	00 c0       	rjmp	.+0      	; 0xbd4 <__stack+0x775>
 bd4:	00 00       	nop
		_delay_ms(10);
		//MOVEMOS ZOMBI DE CUBETA 2
		POS_LINEA1(5);
 bd6:	85 e0       	ldi	r24, 0x05	; 5
 bd8:	0e 94 aa 09 	call	0x1354	; 0x1354 <POS_LINEA1>
		ENVIA_DATO(7);
 bdc:	87 e0       	ldi	r24, 0x07	; 7
 bde:	0e 94 3f 09 	call	0x127e	; 0x127e <ENVIA_DATO>
 be2:	9f e9       	ldi	r25, 0x9F	; 159
 be4:	26 e8       	ldi	r18, 0x86	; 134
 be6:	81 e0       	ldi	r24, 0x01	; 1
 be8:	91 50       	subi	r25, 0x01	; 1
 bea:	20 40       	sbci	r18, 0x00	; 0
 bec:	80 40       	sbci	r24, 0x00	; 0
 bee:	e1 f7       	brne	.-8      	; 0xbe8 <__stack+0x789>
 bf0:	00 c0       	rjmp	.+0      	; 0xbf2 <__stack+0x793>
 bf2:	00 00       	nop
		_delay_ms(500);
		
		//DISPARO PLANTA3
		POS_LINEA1(2);
 bf4:	82 e0       	ldi	r24, 0x02	; 2
 bf6:	0e 94 aa 09 	call	0x1354	; 0x1354 <POS_LINEA1>
		ENVIA_DATO(4);
 bfa:	84 e0       	ldi	r24, 0x04	; 4
 bfc:	0e 94 3f 09 	call	0x127e	; 0x127e <ENVIA_DATO>
		//BORRAMOS ZOMBI DE CUBETA2
		POS_LINEA2(3);
 c00:	83 e0       	ldi	r24, 0x03	; 3
 c02:	0e 94 ae 09 	call	0x135c	; 0x135c <POS_LINEA2>
		ENVIA_DATO(' ');
 c06:	80 e2       	ldi	r24, 0x20	; 32
 c08:	0e 94 3f 09 	call	0x127e	; 0x127e <ENVIA_DATO>
 c0c:	83 ec       	ldi	r24, 0xC3	; 195
 c0e:	99 e0       	ldi	r25, 0x09	; 9
 c10:	01 97       	sbiw	r24, 0x01	; 1
 c12:	f1 f7       	brne	.-4      	; 0xc10 <__stack+0x7b1>
 c14:	00 c0       	rjmp	.+0      	; 0xc16 <__stack+0x7b7>
 c16:	00 00       	nop
		_delay_ms(10);
		//BORRAMOS ZOMBI DE CUBETA2
		POS_LINEA1(5);
 c18:	85 e0       	ldi	r24, 0x05	; 5
 c1a:	0e 94 aa 09 	call	0x1354	; 0x1354 <POS_LINEA1>
		ENVIA_DATO(' ');
 c1e:	80 e2       	ldi	r24, 0x20	; 32
 c20:	0e 94 3f 09 	call	0x127e	; 0x127e <ENVIA_DATO>
 c24:	83 ec       	ldi	r24, 0xC3	; 195
 c26:	99 e0       	ldi	r25, 0x09	; 9
 c28:	01 97       	sbiw	r24, 0x01	; 1
 c2a:	f1 f7       	brne	.-4      	; 0xc28 <__stack+0x7c9>
 c2c:	00 c0       	rjmp	.+0      	; 0xc2e <__stack+0x7cf>
 c2e:	00 00       	nop
		_delay_ms(10);
		//MOVEMOS ZOMBI DE CUBETA 2
		POS_LINEA1(4);
 c30:	84 e0       	ldi	r24, 0x04	; 4
 c32:	0e 94 aa 09 	call	0x1354	; 0x1354 <POS_LINEA1>
		ENVIA_DATO(7);
 c36:	87 e0       	ldi	r24, 0x07	; 7
 c38:	0e 94 3f 09 	call	0x127e	; 0x127e <ENVIA_DATO>
		//BORRAMOS ZOMBI DE CUBETA2
		POS_LINEA2(3);
 c3c:	83 e0       	ldi	r24, 0x03	; 3
 c3e:	0e 94 ae 09 	call	0x135c	; 0x135c <POS_LINEA2>
		ENVIA_DATO(' ');
 c42:	80 e2       	ldi	r24, 0x20	; 32
 c44:	0e 94 3f 09 	call	0x127e	; 0x127e <ENVIA_DATO>
 c48:	83 ec       	ldi	r24, 0xC3	; 195
 c4a:	99 e0       	ldi	r25, 0x09	; 9
 c4c:	01 97       	sbiw	r24, 0x01	; 1
 c4e:	f1 f7       	brne	.-4      	; 0xc4c <__stack+0x7ed>
 c50:	00 c0       	rjmp	.+0      	; 0xc52 <__stack+0x7f3>
 c52:	00 00       	nop
		_delay_ms(10);
		//MOVEMOS ZOMBI DE CUBETA 2
		POS_LINEA1(4);
 c54:	84 e0       	ldi	r24, 0x04	; 4
 c56:	0e 94 aa 09 	call	0x1354	; 0x1354 <POS_LINEA1>
		ENVIA_DATO(7);
 c5a:	87 e0       	ldi	r24, 0x07	; 7
 c5c:	0e 94 3f 09 	call	0x127e	; 0x127e <ENVIA_DATO>
 c60:	9f e9       	ldi	r25, 0x9F	; 159
 c62:	26 e8       	ldi	r18, 0x86	; 134
 c64:	81 e0       	ldi	r24, 0x01	; 1
 c66:	91 50       	subi	r25, 0x01	; 1
 c68:	20 40       	sbci	r18, 0x00	; 0
 c6a:	80 40       	sbci	r24, 0x00	; 0
 c6c:	e1 f7       	brne	.-8      	; 0xc66 <__stack+0x807>
 c6e:	00 c0       	rjmp	.+0      	; 0xc70 <__stack+0x811>
 c70:	00 00       	nop
		_delay_ms(500);
		
		
		//BORRAMOS GUISANTE
		POS_LINEA1(2);
 c72:	82 e0       	ldi	r24, 0x02	; 2
 c74:	0e 94 aa 09 	call	0x1354	; 0x1354 <POS_LINEA1>
		ENVIA_DATO(' ');
 c78:	80 e2       	ldi	r24, 0x20	; 32
 c7a:	0e 94 3f 09 	call	0x127e	; 0x127e <ENVIA_DATO>
 c7e:	83 ec       	ldi	r24, 0xC3	; 195
 c80:	99 e0       	ldi	r25, 0x09	; 9
 c82:	01 97       	sbiw	r24, 0x01	; 1
 c84:	f1 f7       	brne	.-4      	; 0xc82 <__stack+0x823>
 c86:	00 c0       	rjmp	.+0      	; 0xc88 <__stack+0x829>
 c88:	00 00       	nop
		_delay_ms(10);
		//BORRAMOS ZOMBI DE CUBETA2
		POS_LINEA1(4);
 c8a:	84 e0       	ldi	r24, 0x04	; 4
 c8c:	0e 94 aa 09 	call	0x1354	; 0x1354 <POS_LINEA1>
		ENVIA_DATO(' ');
 c90:	80 e2       	ldi	r24, 0x20	; 32
 c92:	0e 94 3f 09 	call	0x127e	; 0x127e <ENVIA_DATO>
 c96:	83 ec       	ldi	r24, 0xC3	; 195
 c98:	99 e0       	ldi	r25, 0x09	; 9
 c9a:	01 97       	sbiw	r24, 0x01	; 1
 c9c:	f1 f7       	brne	.-4      	; 0xc9a <__stack+0x83b>
 c9e:	00 c0       	rjmp	.+0      	; 0xca0 <__stack+0x841>
 ca0:	00 00       	nop
		_delay_ms(10);
		//BORRAMOS ZOMBI DE CUBETA2
		POS_LINEA1(3);
 ca2:	83 e0       	ldi	r24, 0x03	; 3
 ca4:	0e 94 aa 09 	call	0x1354	; 0x1354 <POS_LINEA1>
		ENVIA_DATO(' ');
 ca8:	80 e2       	ldi	r24, 0x20	; 32
 caa:	0e 94 3f 09 	call	0x127e	; 0x127e <ENVIA_DATO>
 cae:	83 ec       	ldi	r24, 0xC3	; 195
 cb0:	99 e0       	ldi	r25, 0x09	; 9
 cb2:	01 97       	sbiw	r24, 0x01	; 1
 cb4:	f1 f7       	brne	.-4      	; 0xcb2 <__stack+0x853>
 cb6:	00 c0       	rjmp	.+0      	; 0xcb8 <__stack+0x859>
 cb8:	00 00       	nop
		_delay_ms(10);
		//MOVEMOS ZOMBI DE CUBETA 2
		POS_LINEA1(2);
 cba:	82 e0       	ldi	r24, 0x02	; 2
 cbc:	0e 94 aa 09 	call	0x1354	; 0x1354 <POS_LINEA1>
		ENVIA_DATO(2);
 cc0:	82 e0       	ldi	r24, 0x02	; 2
 cc2:	0e 94 3f 09 	call	0x127e	; 0x127e <ENVIA_DATO>
 cc6:	9f e9       	ldi	r25, 0x9F	; 159
 cc8:	26 e8       	ldi	r18, 0x86	; 134
 cca:	81 e0       	ldi	r24, 0x01	; 1
 ccc:	91 50       	subi	r25, 0x01	; 1
 cce:	20 40       	sbci	r18, 0x00	; 0
 cd0:	80 40       	sbci	r24, 0x00	; 0
 cd2:	e1 f7       	brne	.-8      	; 0xccc <__stack+0x86d>
 cd4:	00 c0       	rjmp	.+0      	; 0xcd6 <__stack+0x877>
 cd6:	00 00       	nop
		
		
		_delay_ms(500);
		
		//PONEMOS PLANTA4
		POS_LINEA1(2);
 cd8:	82 e0       	ldi	r24, 0x02	; 2
 cda:	0e 94 aa 09 	call	0x1354	; 0x1354 <POS_LINEA1>
		ENVIA_DATO(0);
 cde:	80 e0       	ldi	r24, 0x00	; 0
 ce0:	0e 94 3f 09 	call	0x127e	; 0x127e <ENVIA_DATO>
 ce4:	9f e7       	ldi	r25, 0x7F	; 127
 ce6:	2a e1       	ldi	r18, 0x1A	; 26
 ce8:	86 e0       	ldi	r24, 0x06	; 6
 cea:	91 50       	subi	r25, 0x01	; 1
 cec:	20 40       	sbci	r18, 0x00	; 0
 cee:	80 40       	sbci	r24, 0x00	; 0
 cf0:	e1 f7       	brne	.-8      	; 0xcea <__stack+0x88b>
 cf2:	00 c0       	rjmp	.+0      	; 0xcf4 <__stack+0x895>
 cf4:	00 00       	nop
 cf6:	06 ca       	rjmp	.-3060   	; 0x104 <main+0x54>

Disassembly of section .text.__dummy_fini:

0000136c <_fini>:
    136c:	08 95       	ret

Disassembly of section .text.__dummy_funcs_on_exit:

0000136e <__funcs_on_exit>:
    136e:	08 95       	ret

Disassembly of section .text.__dummy_simulator_exit:

00001370 <__simulator_exit>:
    1370:	08 95       	ret

Disassembly of section .text.exit:

00001336 <exit>:
    1336:	ec 01       	movw	r28, r24
    1338:	0e 94 b7 09 	call	0x136e	; 0x136e <__funcs_on_exit>
    133c:	0e 94 b6 09 	call	0x136c	; 0x136c <_fini>
    1340:	ce 01       	movw	r24, r28
    1342:	0e 94 b8 09 	call	0x1370	; 0x1370 <__simulator_exit>
    1346:	ce 01       	movw	r24, r28
    1348:	0e 94 b4 09 	call	0x1368	; 0x1368 <_Exit>

Disassembly of section .text._Exit:

00001368 <_Exit>:
    1368:	0e 94 56 00 	call	0xac	; 0xac <_exit>
